

Microchip MPLAB XC8 Assembler V2.50 build 20240725155939 
                                                                                               Sun Nov 17 12:41:08 2024

Microchip MPLAB XC8 C Compiler v2.50 (Free license) build 20240725155939 Og1 
     1                           	processor	16F877A
     2                           	pagewidth 120
     3                           	opt	flic
     4                           	psect	strings,global,class=STRING,space=0,delta=2,noexec
     5                           	psect	cinit,global,class=CODE,space=0,merge=1,delta=2
     6                           	psect	bssBANK0,global,class=BANK0,space=1,delta=1,noexec
     7                           	psect	cstackCOMMON,global,class=COMMON,space=1,delta=1,noexec
     8                           	psect	cstackBANK0,global,class=BANK0,space=1,delta=1,noexec
     9                           	psect	maintext,global,class=CODE,space=0,split=1,delta=2
    10                           	psect	text1,local,class=CODE,space=0,merge=1,delta=2
    11                           	psect	text2,local,class=CODE,space=0,merge=1,delta=2
    12                           	psect	text3,local,class=CODE,space=0,merge=1,delta=2
    13                           	psect	text4,local,class=CODE,space=0,merge=1,delta=2
    14                           	psect	text5,local,class=CODE,space=0,merge=1,delta=2
    15                           	psect	text6,local,class=CODE,space=0,merge=1,delta=2
    16                           	psect	text7,local,class=CODE,space=0,merge=1,delta=2
    17                           	psect	text8,local,class=CODE,space=0,merge=1,delta=2
    18                           	psect	text9,local,class=CODE,space=0,merge=1,delta=2
    19                           	psect	text10,local,class=CODE,space=0,merge=1,delta=2
    20                           	psect	text11,local,class=CODE,space=0,merge=1,delta=2
    21                           	psect	text12,local,class=CODE,space=0,merge=1,delta=2
    22                           	psect	text13,local,class=CODE,space=0,merge=1,delta=2
    23                           	psect	text14,local,class=CODE,space=0,merge=1,delta=2
    24                           	psect	text15,local,class=CODE,space=0,merge=1,delta=2
    25                           	psect	text16,local,class=CODE,space=0,merge=1,delta=2
    26                           	psect	text17,local,class=CODE,space=0,merge=1,delta=2
    27                           	psect	text18,local,class=CODE,space=0,merge=1,delta=2
    28                           	psect	text19,local,class=CODE,space=0,merge=1,delta=2
    29                           	psect	text20,local,class=CODE,space=0,merge=1,delta=2
    30                           	psect	idloc,global,abs,ovrld,class=IDLOC,space=5,delta=2,noexec
    31                           	psect	config,global,abs,ovrld,class=CONFIG,space=4,delta=2,noexec
    32                           	dabs	1,0x7E,2
    33     0000                     
    34                           ; Generated 12/10/2023 GMT
    35                           ; 
    36                           ; Copyright © 2023, Microchip Technology Inc. and its subsidiaries ("Microchip")
    37                           ; All rights reserved.
    38                           ; 
    39                           ; This software is developed by Microchip Technology Inc. and its subsidiaries ("Microch
      +                          ip").
    40                           ; 
    41                           ; Redistribution and use in source and binary forms, with or without modification, are
    42                           ; permitted provided that the following conditions are met:
    43                           ; 
    44                           ;     1. Redistributions of source code must retain the above copyright notice, this lis
      +                          t of
    45                           ;        conditions and the following disclaimer.
    46                           ; 
    47                           ;     2. Redistributions in binary form must reproduce the above copyright notice, this 
      +                          list
    48                           ;        of conditions and the following disclaimer in the documentation and/or other
    49                           ;        materials provided with the distribution. Publication is not required when
    50                           ;        this file is used in an embedded application.
    51                           ; 
    52                           ;     3. Microchip's name may not be used to endorse or promote products derived from th
      +                          is
    53                           ;        software without specific prior written permission.
    54                           ; 
    55                           ; THIS SOFTWARE IS PROVIDED BY MICROCHIP "AS IS" AND ANY EXPRESS OR IMPLIED WARRANTIES,
    56                           ; INCLUDING, BUT NOT LIMITED TO, THE IMPLIED WARRANTIES OF MERCHANTABILITY AND FITNESS F
      +                          OR
    57                           ; PURPOSE ARE DISCLAIMED.  IN NO EVENT SHALL MICROCHIP BE LIABLE FOR ANY DIRECT, INDIREC
      +                          T,
    58                           ; INCIDENTAL, SPECIAL, EXEMPLARY, OR CONSEQUENTIAL DAMAGES (INCLUDING BUT NOT LIMITED TO
    59                           ; PROCUREMENT OF SUBSTITUTE GOODS OR SERVICES; LOSS OF USE, DATA OR PROFITS; OR BUSINESS
    60                           ; INTERRUPTION) HOWSOEVER CAUSED AND ON ANY THEORY OF LIABILITY, WHETHER IN CONTRACT, ST
      +                          RICT
    61                           ; LIABILITY, OR TORT (INCLUDING NEGLIGENCE OR OTHERWISE) ARISING IN ANY WAY OUT OF THE U
      +                          SE OF
    62                           ; THIS SOFTWARE, EVEN IF ADVISED OF THE POSSIBILITY OF SUCH DAMAGE.
    63                           ; 
    64                           ; 
    65                           ; Code-generator required, PIC16F877A Definitions
    66                           ; 
    67                           ; SFR Addresses
    68     0004                     fsr             equ	4
    69     0004                     fsr0            equ	4
    70     0000                     indf            equ	0
    71     0000                     indf0           equ	0
    72     0002                     pc              equ	2
    73     0002                     pcl             equ	2
    74     000A                     pclath          equ	10
    75     0003                     status          equ	3
    76     0000                     INDF            equ	0	;# 
    77     0001                     TMR0            equ	1	;# 
    78     0002                     PCL             equ	2	;# 
    79     0003                     STATUS          equ	3	;# 
    80     0004                     FSR             equ	4	;# 
    81     0005                     PORTA           equ	5	;# 
    82     0006                     PORTB           equ	6	;# 
    83     0007                     PORTC           equ	7	;# 
    84     0008                     PORTD           equ	8	;# 
    85     0009                     PORTE           equ	9	;# 
    86     000A                     PCLATH          equ	10	;# 
    87     000B                     INTCON          equ	11	;# 
    88     000C                     PIR1            equ	12	;# 
    89     000D                     PIR2            equ	13	;# 
    90     000E                     TMR1            equ	14	;# 
    91     000E                     TMR1L           equ	14	;# 
    92     000F                     TMR1H           equ	15	;# 
    93     0010                     T1CON           equ	16	;# 
    94     0011                     TMR2            equ	17	;# 
    95     0012                     T2CON           equ	18	;# 
    96     0013                     SSPBUF          equ	19	;# 
    97     0014                     SSPCON          equ	20	;# 
    98     0015                     CCPR1           equ	21	;# 
    99     0015                     CCPR1L          equ	21	;# 
   100     0016                     CCPR1H          equ	22	;# 
   101     0017                     CCP1CON         equ	23	;# 
   102     0018                     RCSTA           equ	24	;# 
   103     0019                     TXREG           equ	25	;# 
   104     001A                     RCREG           equ	26	;# 
   105     001B                     CCPR2           equ	27	;# 
   106     001B                     CCPR2L          equ	27	;# 
   107     001C                     CCPR2H          equ	28	;# 
   108     001D                     CCP2CON         equ	29	;# 
   109     001E                     ADRESH          equ	30	;# 
   110     001F                     ADCON0          equ	31	;# 
   111     0081                     OPTION_REG      equ	129	;# 
   112     0085                     TRISA           equ	133	;# 
   113     0086                     TRISB           equ	134	;# 
   114     0087                     TRISC           equ	135	;# 
   115     0088                     TRISD           equ	136	;# 
   116     0089                     TRISE           equ	137	;# 
   117     008C                     PIE1            equ	140	;# 
   118     008D                     PIE2            equ	141	;# 
   119     008E                     PCON            equ	142	;# 
   120     0091                     SSPCON2         equ	145	;# 
   121     0092                     PR2             equ	146	;# 
   122     0093                     SSPADD          equ	147	;# 
   123     0094                     SSPSTAT         equ	148	;# 
   124     0098                     TXSTA           equ	152	;# 
   125     0099                     SPBRG           equ	153	;# 
   126     009C                     CMCON           equ	156	;# 
   127     009D                     CVRCON          equ	157	;# 
   128     009E                     ADRESL          equ	158	;# 
   129     009F                     ADCON1          equ	159	;# 
   130     010C                     EEDATA          equ	268	;# 
   131     010D                     EEADR           equ	269	;# 
   132     010E                     EEDATH          equ	270	;# 
   133     010F                     EEADRH          equ	271	;# 
   134     018C                     EECON1          equ	396	;# 
   135     018D                     EECON2          equ	397	;# 
   136     0000                     INDF            equ	0	;# 
   137     0001                     TMR0            equ	1	;# 
   138     0002                     PCL             equ	2	;# 
   139     0003                     STATUS          equ	3	;# 
   140     0004                     FSR             equ	4	;# 
   141     0005                     PORTA           equ	5	;# 
   142     0006                     PORTB           equ	6	;# 
   143     0007                     PORTC           equ	7	;# 
   144     0008                     PORTD           equ	8	;# 
   145     0009                     PORTE           equ	9	;# 
   146     000A                     PCLATH          equ	10	;# 
   147     000B                     INTCON          equ	11	;# 
   148     000C                     PIR1            equ	12	;# 
   149     000D                     PIR2            equ	13	;# 
   150     000E                     TMR1            equ	14	;# 
   151     000E                     TMR1L           equ	14	;# 
   152     000F                     TMR1H           equ	15	;# 
   153     0010                     T1CON           equ	16	;# 
   154     0011                     TMR2            equ	17	;# 
   155     0012                     T2CON           equ	18	;# 
   156     0013                     SSPBUF          equ	19	;# 
   157     0014                     SSPCON          equ	20	;# 
   158     0015                     CCPR1           equ	21	;# 
   159     0015                     CCPR1L          equ	21	;# 
   160     0016                     CCPR1H          equ	22	;# 
   161     0017                     CCP1CON         equ	23	;# 
   162     0018                     RCSTA           equ	24	;# 
   163     0019                     TXREG           equ	25	;# 
   164     001A                     RCREG           equ	26	;# 
   165     001B                     CCPR2           equ	27	;# 
   166     001B                     CCPR2L          equ	27	;# 
   167     001C                     CCPR2H          equ	28	;# 
   168     001D                     CCP2CON         equ	29	;# 
   169     001E                     ADRESH          equ	30	;# 
   170     001F                     ADCON0          equ	31	;# 
   171     0081                     OPTION_REG      equ	129	;# 
   172     0085                     TRISA           equ	133	;# 
   173     0086                     TRISB           equ	134	;# 
   174     0087                     TRISC           equ	135	;# 
   175     0088                     TRISD           equ	136	;# 
   176     0089                     TRISE           equ	137	;# 
   177     008C                     PIE1            equ	140	;# 
   178     008D                     PIE2            equ	141	;# 
   179     008E                     PCON            equ	142	;# 
   180     0091                     SSPCON2         equ	145	;# 
   181     0092                     PR2             equ	146	;# 
   182     0093                     SSPADD          equ	147	;# 
   183     0094                     SSPSTAT         equ	148	;# 
   184     0098                     TXSTA           equ	152	;# 
   185     0099                     SPBRG           equ	153	;# 
   186     009C                     CMCON           equ	156	;# 
   187     009D                     CVRCON          equ	157	;# 
   188     009E                     ADRESL          equ	158	;# 
   189     009F                     ADCON1          equ	159	;# 
   190     010C                     EEDATA          equ	268	;# 
   191     010D                     EEADR           equ	269	;# 
   192     010E                     EEDATH          equ	270	;# 
   193     010F                     EEADRH          equ	271	;# 
   194     018C                     EECON1          equ	396	;# 
   195     018D                     EECON2          equ	397	;# 
   196     0000                     INDF            equ	0	;# 
   197     0001                     TMR0            equ	1	;# 
   198     0002                     PCL             equ	2	;# 
   199     0003                     STATUS          equ	3	;# 
   200     0004                     FSR             equ	4	;# 
   201     0005                     PORTA           equ	5	;# 
   202     0006                     PORTB           equ	6	;# 
   203     0007                     PORTC           equ	7	;# 
   204     0008                     PORTD           equ	8	;# 
   205     0009                     PORTE           equ	9	;# 
   206     000A                     PCLATH          equ	10	;# 
   207     000B                     INTCON          equ	11	;# 
   208     000C                     PIR1            equ	12	;# 
   209     000D                     PIR2            equ	13	;# 
   210     000E                     TMR1            equ	14	;# 
   211     000E                     TMR1L           equ	14	;# 
   212     000F                     TMR1H           equ	15	;# 
   213     0010                     T1CON           equ	16	;# 
   214     0011                     TMR2            equ	17	;# 
   215     0012                     T2CON           equ	18	;# 
   216     0013                     SSPBUF          equ	19	;# 
   217     0014                     SSPCON          equ	20	;# 
   218     0015                     CCPR1           equ	21	;# 
   219     0015                     CCPR1L          equ	21	;# 
   220     0016                     CCPR1H          equ	22	;# 
   221     0017                     CCP1CON         equ	23	;# 
   222     0018                     RCSTA           equ	24	;# 
   223     0019                     TXREG           equ	25	;# 
   224     001A                     RCREG           equ	26	;# 
   225     001B                     CCPR2           equ	27	;# 
   226     001B                     CCPR2L          equ	27	;# 
   227     001C                     CCPR2H          equ	28	;# 
   228     001D                     CCP2CON         equ	29	;# 
   229     001E                     ADRESH          equ	30	;# 
   230     001F                     ADCON0          equ	31	;# 
   231     0081                     OPTION_REG      equ	129	;# 
   232     0085                     TRISA           equ	133	;# 
   233     0086                     TRISB           equ	134	;# 
   234     0087                     TRISC           equ	135	;# 
   235     0088                     TRISD           equ	136	;# 
   236     0089                     TRISE           equ	137	;# 
   237     008C                     PIE1            equ	140	;# 
   238     008D                     PIE2            equ	141	;# 
   239     008E                     PCON            equ	142	;# 
   240     0091                     SSPCON2         equ	145	;# 
   241     0092                     PR2             equ	146	;# 
   242     0093                     SSPADD          equ	147	;# 
   243     0094                     SSPSTAT         equ	148	;# 
   244     0098                     TXSTA           equ	152	;# 
   245     0099                     SPBRG           equ	153	;# 
   246     009C                     CMCON           equ	156	;# 
   247     009D                     CVRCON          equ	157	;# 
   248     009E                     ADRESL          equ	158	;# 
   249     009F                     ADCON1          equ	159	;# 
   250     010C                     EEDATA          equ	268	;# 
   251     010D                     EEADR           equ	269	;# 
   252     010E                     EEDATH          equ	270	;# 
   253     010F                     EEADRH          equ	271	;# 
   254     018C                     EECON1          equ	396	;# 
   255     018D                     EECON2          equ	397	;# 
   256     0000                     INDF            equ	0	;# 
   257     0001                     TMR0            equ	1	;# 
   258     0002                     PCL             equ	2	;# 
   259     0003                     STATUS          equ	3	;# 
   260     0004                     FSR             equ	4	;# 
   261     0005                     PORTA           equ	5	;# 
   262     0006                     PORTB           equ	6	;# 
   263     0007                     PORTC           equ	7	;# 
   264     0008                     PORTD           equ	8	;# 
   265     0009                     PORTE           equ	9	;# 
   266     000A                     PCLATH          equ	10	;# 
   267     000B                     INTCON          equ	11	;# 
   268     000C                     PIR1            equ	12	;# 
   269     000D                     PIR2            equ	13	;# 
   270     000E                     TMR1            equ	14	;# 
   271     000E                     TMR1L           equ	14	;# 
   272     000F                     TMR1H           equ	15	;# 
   273     0010                     T1CON           equ	16	;# 
   274     0011                     TMR2            equ	17	;# 
   275     0012                     T2CON           equ	18	;# 
   276     0013                     SSPBUF          equ	19	;# 
   277     0014                     SSPCON          equ	20	;# 
   278     0015                     CCPR1           equ	21	;# 
   279     0015                     CCPR1L          equ	21	;# 
   280     0016                     CCPR1H          equ	22	;# 
   281     0017                     CCP1CON         equ	23	;# 
   282     0018                     RCSTA           equ	24	;# 
   283     0019                     TXREG           equ	25	;# 
   284     001A                     RCREG           equ	26	;# 
   285     001B                     CCPR2           equ	27	;# 
   286     001B                     CCPR2L          equ	27	;# 
   287     001C                     CCPR2H          equ	28	;# 
   288     001D                     CCP2CON         equ	29	;# 
   289     001E                     ADRESH          equ	30	;# 
   290     001F                     ADCON0          equ	31	;# 
   291     0081                     OPTION_REG      equ	129	;# 
   292     0085                     TRISA           equ	133	;# 
   293     0086                     TRISB           equ	134	;# 
   294     0087                     TRISC           equ	135	;# 
   295     0088                     TRISD           equ	136	;# 
   296     0089                     TRISE           equ	137	;# 
   297     008C                     PIE1            equ	140	;# 
   298     008D                     PIE2            equ	141	;# 
   299     008E                     PCON            equ	142	;# 
   300     0091                     SSPCON2         equ	145	;# 
   301     0092                     PR2             equ	146	;# 
   302     0093                     SSPADD          equ	147	;# 
   303     0094                     SSPSTAT         equ	148	;# 
   304     0098                     TXSTA           equ	152	;# 
   305     0099                     SPBRG           equ	153	;# 
   306     009C                     CMCON           equ	156	;# 
   307     009D                     CVRCON          equ	157	;# 
   308     009E                     ADRESL          equ	158	;# 
   309     009F                     ADCON1          equ	159	;# 
   310     010C                     EEDATA          equ	268	;# 
   311     010D                     EEADR           equ	269	;# 
   312     010E                     EEDATH          equ	270	;# 
   313     010F                     EEADRH          equ	271	;# 
   314     018C                     EECON1          equ	396	;# 
   315     018D                     EECON2          equ	397	;# 
   316     0000                     INDF            equ	0	;# 
   317     0001                     TMR0            equ	1	;# 
   318     0002                     PCL             equ	2	;# 
   319     0003                     STATUS          equ	3	;# 
   320     0004                     FSR             equ	4	;# 
   321     0005                     PORTA           equ	5	;# 
   322     0006                     PORTB           equ	6	;# 
   323     0007                     PORTC           equ	7	;# 
   324     0008                     PORTD           equ	8	;# 
   325     0009                     PORTE           equ	9	;# 
   326     000A                     PCLATH          equ	10	;# 
   327     000B                     INTCON          equ	11	;# 
   328     000C                     PIR1            equ	12	;# 
   329     000D                     PIR2            equ	13	;# 
   330     000E                     TMR1            equ	14	;# 
   331     000E                     TMR1L           equ	14	;# 
   332     000F                     TMR1H           equ	15	;# 
   333     0010                     T1CON           equ	16	;# 
   334     0011                     TMR2            equ	17	;# 
   335     0012                     T2CON           equ	18	;# 
   336     0013                     SSPBUF          equ	19	;# 
   337     0014                     SSPCON          equ	20	;# 
   338     0015                     CCPR1           equ	21	;# 
   339     0015                     CCPR1L          equ	21	;# 
   340     0016                     CCPR1H          equ	22	;# 
   341     0017                     CCP1CON         equ	23	;# 
   342     0018                     RCSTA           equ	24	;# 
   343     0019                     TXREG           equ	25	;# 
   344     001A                     RCREG           equ	26	;# 
   345     001B                     CCPR2           equ	27	;# 
   346     001B                     CCPR2L          equ	27	;# 
   347     001C                     CCPR2H          equ	28	;# 
   348     001D                     CCP2CON         equ	29	;# 
   349     001E                     ADRESH          equ	30	;# 
   350     001F                     ADCON0          equ	31	;# 
   351     0081                     OPTION_REG      equ	129	;# 
   352     0085                     TRISA           equ	133	;# 
   353     0086                     TRISB           equ	134	;# 
   354     0087                     TRISC           equ	135	;# 
   355     0088                     TRISD           equ	136	;# 
   356     0089                     TRISE           equ	137	;# 
   357     008C                     PIE1            equ	140	;# 
   358     008D                     PIE2            equ	141	;# 
   359     008E                     PCON            equ	142	;# 
   360     0091                     SSPCON2         equ	145	;# 
   361     0092                     PR2             equ	146	;# 
   362     0093                     SSPADD          equ	147	;# 
   363     0094                     SSPSTAT         equ	148	;# 
   364     0098                     TXSTA           equ	152	;# 
   365     0099                     SPBRG           equ	153	;# 
   366     009C                     CMCON           equ	156	;# 
   367     009D                     CVRCON          equ	157	;# 
   368     009E                     ADRESL          equ	158	;# 
   369     009F                     ADCON1          equ	159	;# 
   370     010C                     EEDATA          equ	268	;# 
   371     010D                     EEADR           equ	269	;# 
   372     010E                     EEDATH          equ	270	;# 
   373     010F                     EEADRH          equ	271	;# 
   374     018C                     EECON1          equ	396	;# 
   375     018D                     EECON2          equ	397	;# 
   376     0000                     INDF            equ	0	;# 
   377     0001                     TMR0            equ	1	;# 
   378     0002                     PCL             equ	2	;# 
   379     0003                     STATUS          equ	3	;# 
   380     0004                     FSR             equ	4	;# 
   381     0005                     PORTA           equ	5	;# 
   382     0006                     PORTB           equ	6	;# 
   383     0007                     PORTC           equ	7	;# 
   384     0008                     PORTD           equ	8	;# 
   385     0009                     PORTE           equ	9	;# 
   386     000A                     PCLATH          equ	10	;# 
   387     000B                     INTCON          equ	11	;# 
   388     000C                     PIR1            equ	12	;# 
   389     000D                     PIR2            equ	13	;# 
   390     000E                     TMR1            equ	14	;# 
   391     000E                     TMR1L           equ	14	;# 
   392     000F                     TMR1H           equ	15	;# 
   393     0010                     T1CON           equ	16	;# 
   394     0011                     TMR2            equ	17	;# 
   395     0012                     T2CON           equ	18	;# 
   396     0013                     SSPBUF          equ	19	;# 
   397     0014                     SSPCON          equ	20	;# 
   398     0015                     CCPR1           equ	21	;# 
   399     0015                     CCPR1L          equ	21	;# 
   400     0016                     CCPR1H          equ	22	;# 
   401     0017                     CCP1CON         equ	23	;# 
   402     0018                     RCSTA           equ	24	;# 
   403     0019                     TXREG           equ	25	;# 
   404     001A                     RCREG           equ	26	;# 
   405     001B                     CCPR2           equ	27	;# 
   406     001B                     CCPR2L          equ	27	;# 
   407     001C                     CCPR2H          equ	28	;# 
   408     001D                     CCP2CON         equ	29	;# 
   409     001E                     ADRESH          equ	30	;# 
   410     001F                     ADCON0          equ	31	;# 
   411     0081                     OPTION_REG      equ	129	;# 
   412     0085                     TRISA           equ	133	;# 
   413     0086                     TRISB           equ	134	;# 
   414     0087                     TRISC           equ	135	;# 
   415     0088                     TRISD           equ	136	;# 
   416     0089                     TRISE           equ	137	;# 
   417     008C                     PIE1            equ	140	;# 
   418     008D                     PIE2            equ	141	;# 
   419     008E                     PCON            equ	142	;# 
   420     0091                     SSPCON2         equ	145	;# 
   421     0092                     PR2             equ	146	;# 
   422     0093                     SSPADD          equ	147	;# 
   423     0094                     SSPSTAT         equ	148	;# 
   424     0098                     TXSTA           equ	152	;# 
   425     0099                     SPBRG           equ	153	;# 
   426     009C                     CMCON           equ	156	;# 
   427     009D                     CVRCON          equ	157	;# 
   428     009E                     ADRESL          equ	158	;# 
   429     009F                     ADCON1          equ	159	;# 
   430     010C                     EEDATA          equ	268	;# 
   431     010D                     EEADR           equ	269	;# 
   432     010E                     EEDATH          equ	270	;# 
   433     010F                     EEADRH          equ	271	;# 
   434     018C                     EECON1          equ	396	;# 
   435     018D                     EECON2          equ	397	;# 
   436     0013                     _SSPBUF         set	19
   437     0014                     _SSPCON         set	20
   438     0009                     _PORTEbits      set	9
   439     0006                     _PORTBbits      set	6
   440     0009                     _PORTE          set	9
   441     0008                     _PORTD          set	8
   442     0007                     _PORTC          set	7
   443     0006                     _PORTB          set	6
   444     0005                     _PORTA          set	5
   445     0094                     _SSPSTATbits    set	148
   446     0091                     _SSPCON2bits    set	145
   447     0094                     _SSPSTAT        set	148
   448     0093                     _SSPADD         set	147
   449     0091                     _SSPCON2        set	145
   450     009F                     _ADCON1bits     set	159
   451     0081                     _OPTION_REGbits set	129
   452     009C                     _CMCON          set	156
   453     0086                     _TRISB          set	134
   454     0087                     _TRISC          set	135
   455     0089                     _TRISE          set	137
   456     0088                     _TRISD          set	136
   457     0085                     _TRISA          set	133
   458     043C                     _TRISC4         set	1084
   459     043B                     _TRISC3         set	1083
   460                           
   461                           	psect	strings
   462     0003                     __pstrings:
   463     0003                     stringtab:
   464     0003                     __stringtab:
   465     0003                     stringcode:	
   466                           ;	String table - string pointers are 1 byte each
   467                           
   468     0003                     stringdir:
   469     0003  3000               	movlw	high stringdir
   470     0004  008A               	movwf	10
   471     0005  0804               	movf	4,w
   472     0006  0A84               	incf	4,f
   473     0007  0782               	addwf	2,f
   474     0008                     __stringbase:
   475     0008  3400               	retlw	0
   476     0009                     __end_of__stringtab:
   477     0009                     STR_8:
   478     0009  3432               	retlw	50	;'2'
   479     000A  342E               	retlw	46	;'.'
   480     000B  3441               	retlw	65	;'A'
   481     000C  346A               	retlw	106	;'j'
   482     000D  3475               	retlw	117	;'u'
   483     000E  3473               	retlw	115	;'s'
   484     000F  3474               	retlw	116	;'t'
   485     0010  3465               	retlw	101	;'e'
   486     0011  3420               	retlw	32	;' '
   487     0012  3464               	retlw	100	;'d'
   488     0013  3465               	retlw	101	;'e'
   489     0014  3420               	retlw	32	;' '
   490     0015  3448               	retlw	72	;'H'
   491     0016  346F               	retlw	111	;'o'
   492     0017  3472               	retlw	114	;'r'
   493     0018  3461               	retlw	97	;'a'
   494     0019  3400               	retlw	0
   495     001A                     STR_9:
   496     001A  3431               	retlw	49	;'1'
   497     001B  342E               	retlw	46	;'.'
   498     001C  3444               	retlw	68	;'D'
   499     001D  3469               	retlw	105	;'i'
   500     001E  3461               	retlw	97	;'a'
   501     001F  3420               	retlw	32	;' '
   502     0020  3420               	retlw	32	;' '
   503     0021  3420               	retlw	32	;' '
   504     0022  3420               	retlw	32	;' '
   505     0023  3420               	retlw	32	;' '
   506     0024  3433               	retlw	51	;'3'
   507     0025  342E               	retlw	46	;'.'
   508     0026  3441               	retlw	65	;'A'
   509     0027  346E               	retlw	110	;'n'
   510     0028  346F               	retlw	111	;'o'
   511     0029  3400               	retlw	0
   512     002A                     STR_5:
   513     002A  3444               	retlw	68	;'D'
   514     002B  3469               	retlw	105	;'i'
   515     002C  3473               	retlw	115	;'s'
   516     002D  3470               	retlw	112	;'p'
   517     002E  346F               	retlw	111	;'o'
   518     002F  3473               	retlw	115	;'s'
   519     0030  3469               	retlw	105	;'i'
   520     0031  3474               	retlw	116	;'t'
   521     0032  3469               	retlw	105	;'i'
   522     0033  3476               	retlw	118	;'v'
   523     0034  346F               	retlw	111	;'o'
   524     0035  3420               	retlw	32	;' '
   525     0036  3449               	retlw	73	;'I'
   526     0037  3432               	retlw	50	;'2'
   527     0038  3443               	retlw	67	;'C'
   528     0039  3400               	retlw	0
   529     003A                     STR_7:
   530     003A  3431               	retlw	49	;'1'
   531     003B  342E               	retlw	46	;'.'
   532     003C  3441               	retlw	65	;'A'
   533     003D  346A               	retlw	106	;'j'
   534     003E  3475               	retlw	117	;'u'
   535     003F  3473               	retlw	115	;'s'
   536     0040  3474               	retlw	116	;'t'
   537     0041  3465               	retlw	101	;'e'
   538     0042  3420               	retlw	32	;' '
   539     0043  3446               	retlw	70	;'F'
   540     0044  3465               	retlw	101	;'e'
   541     0045  3463               	retlw	99	;'c'
   542     0046  3468               	retlw	104	;'h'
   543     0047  3461               	retlw	97	;'a'
   544     0048  3400               	retlw	0
   545     0049                     STR_11:
   546     0049  3441               	retlw	65	;'A'
   547     004A  346A               	retlw	106	;'j'
   548     004B  3475               	retlw	117	;'u'
   549     004C  3473               	retlw	115	;'s'
   550     004D  3474               	retlw	116	;'t'
   551     004E  3465               	retlw	101	;'e'
   552     004F  3420               	retlw	32	;' '
   553     0050  3464               	retlw	100	;'d'
   554     0051  3465               	retlw	101	;'e'
   555     0052  3420               	retlw	32	;' '
   556     0053  3464               	retlw	100	;'d'
   557     0054  3469               	retlw	105	;'i'
   558     0055  3461               	retlw	97	;'a'
   559     0056  3400               	retlw	0
   560     0057                     STR_15:
   561     0057  3441               	retlw	65	;'A'
   562     0058  346A               	retlw	106	;'j'
   563     0059  3475               	retlw	117	;'u'
   564     005A  3473               	retlw	115	;'s'
   565     005B  3474               	retlw	116	;'t'
   566     005C  3465               	retlw	101	;'e'
   567     005D  3420               	retlw	32	;' '
   568     005E  3464               	retlw	100	;'d'
   569     005F  3465               	retlw	101	;'e'
   570     0060  3420               	retlw	32	;' '
   571     0061  3441               	retlw	65	;'A'
   572     0062  346E               	retlw	110	;'n'
   573     0063  346F               	retlw	111	;'o'
   574     0064  3400               	retlw	0
   575     0065                     STR_13:
   576     0065  3441               	retlw	65	;'A'
   577     0066  346A               	retlw	106	;'j'
   578     0067  3475               	retlw	117	;'u'
   579     0068  3473               	retlw	115	;'s'
   580     0069  3474               	retlw	116	;'t'
   581     006A  3465               	retlw	101	;'e'
   582     006B  3420               	retlw	32	;' '
   583     006C  3464               	retlw	100	;'d'
   584     006D  3465               	retlw	101	;'e'
   585     006E  3420               	retlw	32	;' '
   586     006F  344D               	retlw	77	;'M'
   587     0070  3465               	retlw	101	;'e'
   588     0071  3473               	retlw	115	;'s'
   589     0072  3400               	retlw	0
   590     0073                     STR_6:
   591     0073  344E               	retlw	78	;'N'
   592     0074  346F               	retlw	111	;'o'
   593     0075  3420               	retlw	32	;' '
   594     0076  3452               	retlw	82	;'R'
   595     0077  3465               	retlw	101	;'e'
   596     0078  3463               	retlw	99	;'c'
   597     0079  346F               	retlw	111	;'o'
   598     007A  346E               	retlw	110	;'n'
   599     007B  346F               	retlw	111	;'o'
   600     007C  3463               	retlw	99	;'c'
   601     007D  3469               	retlw	105	;'i'
   602     007E  3464               	retlw	100	;'d'
   603     007F  346F               	retlw	111	;'o'
   604     0080  3400               	retlw	0
   605     0081                     STR_4:
   606     0081  344F               	retlw	79	;'O'
   607     0082  3463               	retlw	99	;'c'
   608     0083  3475               	retlw	117	;'u'
   609     0084  3470               	retlw	112	;'p'
   610     0085  3461               	retlw	97	;'a'
   611     0086  3464               	retlw	100	;'d'
   612     0087  346F               	retlw	111	;'o'
   613     0088  3400               	retlw	0
   614     0089                     STR_2:
   615     0089  3444               	retlw	68	;'D'
   616     008A  3469               	retlw	105	;'i'
   617     008B  3467               	retlw	103	;'g'
   618     008C  3469               	retlw	105	;'i'
   619     008D  3474               	retlw	116	;'t'
   620     008E  3461               	retlw	97	;'a'
   621     008F  346C               	retlw	108	;'l'
   622     0090  3400               	retlw	0
   623     0091                     STR_10:
   624     0091  3432               	retlw	50	;'2'
   625     0092  342E               	retlw	46	;'.'
   626     0093  344D               	retlw	77	;'M'
   627     0094  3465               	retlw	101	;'e'
   628     0095  3473               	retlw	115	;'s'
   629     0096  3400               	retlw	0
   630     0097                     STR_1:
   631     0097  3452               	retlw	82	;'R'
   632     0098  3465               	retlw	101	;'e'
   633     0099  346C               	retlw	108	;'l'
   634     009A  346F               	retlw	111	;'o'
   635     009B  346A               	retlw	106	;'j'
   636     009C  3400               	retlw	0
   637     0036                     STR_3           equ	STR_5+12
   638     0039                     STR_12          equ	STR_5+15
   639     0039                     STR_14          equ	STR_5+15
   640     0039                     STR_16          equ	STR_5+15
   641                           
   642                           	psect	cinit
   643     07F2                     start_initialization:	
   644                           ; #config settings
   645                           
   646     07F2                     __initialization:
   647                           
   648                           ; Clear objects allocated to BANK0
   649     07F2  1283               	bcf	3,5	;RP0=0, select bank0
   650     07F3  1303               	bcf	3,6	;RP1=0, select bank0
   651     07F4  01AA               	clrf	__pbssBANK0& (0+127)
   652     07F5  01AB               	clrf	(__pbssBANK0+1)& (0+127)
   653     07F6  01AC               	clrf	(__pbssBANK0+2)& (0+127)
   654     07F7  01AD               	clrf	(__pbssBANK0+3)& (0+127)
   655     07F8  01AE               	clrf	(__pbssBANK0+4)& (0+127)
   656     07F9  01AF               	clrf	(__pbssBANK0+5)& (0+127)
   657     07FA  01B0               	clrf	(__pbssBANK0+6)& (0+127)
   658     07FB  01B1               	clrf	(__pbssBANK0+7)& (0+127)
   659     07FC                     end_of_initialization:	
   660                           ;End of C runtime variable initialization code
   661                           
   662     07FC                     __end_of__initialization:
   663     07FC  0183               	clrf	3
   664     07FD  120A  118A  2D26   	ljmp	_main	;jump to C main() function
   665                           
   666                           	psect	bssBANK0
   667     002A                     __pbssBANK0:
   668     002A                     _unidades:
   669     002A                     	ds	1
   670     002B                     _decenas:
   671     002B                     	ds	1
   672     002C                     _dato_ajuste_dia_lcd_decena:
   673     002C                     	ds	1
   674     002D                     _dato_ajuste_dia_lcd_unidad:
   675     002D                     	ds	1
   676     002E                     _dato_ajuste_dia_decena:
   677     002E                     	ds	1
   678     002F                     _dato_ajuste_dia_unidad:
   679     002F                     	ds	1
   680     0030                     _dato_ajuste_dia:
   681     0030                     	ds	1
   682     0031                     _DATO_I2C:
   683     0031                     	ds	1
   684                           
   685                           	psect	cstackCOMMON
   686     0070                     __pcstackCOMMON:
   687     0070                     ?_Lcd_inicio:
   688     0070                     ?_I2C_Initialize:	
   689                           ; 1 bytes @ 0x0
   690                           
   691     0070                     ?_CFG_DS1307:	
   692                           ; 1 bytes @ 0x0
   693                           
   694     0070                     ?_Lcd_cmd:	
   695                           ; 1 bytes @ 0x0
   696                           
   697     0070                     ?_I2C_P:	
   698                           ; 1 bytes @ 0x0
   699                           
   700     0070                     ?_READ_DS1307:	
   701                           ; 1 bytes @ 0x0
   702                           
   703     0070                     ?_AJUSTE_DS1307:	
   704                           ; 1 bytes @ 0x0
   705                           
   706     0070                     ?_Lcd_out_cmd:	
   707                           ; 1 bytes @ 0x0
   708                           
   709     0070                     ?_Lcd_Write_Char:	
   710                           ; 1 bytes @ 0x0
   711                           
   712     0070                     ?_BCD_TO_DEC:	
   713                           ; 1 bytes @ 0x0
   714                           
   715     0070                     ?_main:	
   716                           ; 1 bytes @ 0x0
   717                           
   718     0070                     ?_Lcd_out_data:	
   719                           ; 1 bytes @ 0x0
   720                           
   721     0070                     ?_Lcd_pos_x:	
   722                           ; 1 bytes @ 0x0
   723                           
   724     0070                     ?_Lcd_pos_y:	
   725                           ; 1 bytes @ 0x0
   726                           
   727     0070                     ?_I2C_Check:	
   728                           ; 1 bytes @ 0x0
   729                           
   730     0070                     ?_I2C_Read:	
   731                           ; 1 bytes @ 0x0
   732                           
   733     0070                     ??_I2C_Initialize:	
   734                           ; 1 bytes @ 0x0
   735                           
   736     0070                     ??_Lcd_out_cmd:	
   737                           ; 1 bytes @ 0x0
   738                           
   739     0070                     ??_BCD_TO_DEC:	
   740                           ; 1 bytes @ 0x0
   741                           
   742     0070                     ??_Lcd_out_data:	
   743                           ; 1 bytes @ 0x0
   744                           
   745                           
   746                           ; 1 bytes @ 0x0
   747     0070                     	ds	1
   748     0071                     BCD_TO_DEC@dato:
   749                           
   750                           ; 1 bytes @ 0x1
   751     0071                     	ds	1
   752     0072                     Lcd_cmd@comando:
   753     0072                     Lcd_Write_Char@a:	
   754                           ; 1 bytes @ 0x2
   755                           
   756     0072                     Lcd_pos_x@POSx:	
   757                           ; 1 bytes @ 0x2
   758                           
   759     0072                     Lcd_pos_y@POSy:	
   760                           ; 1 bytes @ 0x2
   761                           
   762     0072                     ??_Lcd_inicio:	
   763                           ; 1 bytes @ 0x2
   764                           
   765     0072                     ??_Lcd_cmd:	
   766                           ; 1 bytes @ 0x2
   767                           
   768     0072                     ??_Lcd_Write_Char:	
   769                           ; 1 bytes @ 0x2
   770                           
   771     0072                     ??_Lcd_pos_x:	
   772                           ; 1 bytes @ 0x2
   773                           
   774     0072                     ??_Lcd_pos_y:	
   775                           ; 1 bytes @ 0x2
   776                           
   777                           
   778                           ; 1 bytes @ 0x2
   779     0072                     	ds	1
   780     0073                     ?_Lcd_print_string:
   781     0073                     Lcd_print_string@String_x:	
   782                           ; 1 bytes @ 0x3
   783                           
   784     0073                     Lcd_pos_x@a:	
   785                           ; 1 bytes @ 0x3
   786                           
   787     0073                     Lcd_pos_y@a:	
   788                           ; 1 bytes @ 0x3
   789                           
   790                           
   791                           ; 1 bytes @ 0x3
   792     0073                     	ds	1
   793     0074                     Lcd_print_string@POSy:
   794                           
   795                           ; 1 bytes @ 0x4
   796     0074                     	ds	1
   797     0075                     Lcd_print_string@String_y:
   798                           
   799                           ; 1 bytes @ 0x5
   800     0075                     	ds	1
   801     0076                     Lcd_print_string@POSx:
   802     0076                     ??_Lcd_print_string:	
   803                           ; 1 bytes @ 0x6
   804                           
   805                           
   806                           ; 1 bytes @ 0x6
   807     0076                     	ds	1
   808     0077                     Lcd_print_string@b:
   809                           
   810                           ; 2 bytes @ 0x7
   811     0077                     	ds	2
   812     0079                     Lcd_print_string@c:
   813                           
   814                           ; 2 bytes @ 0x9
   815     0079                     	ds	2
   816     007B                     Lcd_print_string@a:
   817                           
   818                           ; 1 bytes @ 0xB
   819     007B                     	ds	1
   820     007C                     ?_I2C_Cmd:
   821     007C                     ?_I2C_Write:	
   822                           ; 1 bytes @ 0xC
   823                           
   824     007C                     I2C_Cmd@Cfg:	
   825                           ; 1 bytes @ 0xC
   826                           
   827     007C                     I2C_Write@CmdW:	
   828                           ; 1 bytes @ 0xC
   829                           
   830     007C                     ??_I2C_P:	
   831                           ; 1 bytes @ 0xC
   832                           
   833     007C                     ??_I2C_Check:	
   834                           ; 1 bytes @ 0xC
   835                           
   836     007C                     ??_I2C_Read:	
   837                           ; 1 bytes @ 0xC
   838                           
   839                           
   840                           ; 1 bytes @ 0xC
   841     007C                     	ds	1
   842     007D                     I2C_Cmd@Cmd:
   843     007D                     I2C_Write@DirW2:	
   844                           ; 1 bytes @ 0xD
   845                           
   846                           
   847                           ; 1 bytes @ 0xD
   848     007D                     	ds	1
   849     007E                     ??_CFG_DS1307:
   850     007E                     ??_READ_DS1307:	
   851                           ; 1 bytes @ 0xE
   852                           
   853     007E                     ??_lectura_tiempo_posX:	
   854                           ; 1 bytes @ 0xE
   855                           
   856     007E                     ??_lectura_tiempo_posY:	
   857                           ; 1 bytes @ 0xE
   858                           
   859                           
   860                           	psect	cstackBANK0
   861     0020                     __pcstackBANK0:	
   862                           ; 1 bytes @ 0xE
   863                           
   864     0020                     ??_I2C_Cmd:
   865     0020                     ??_I2C_Write:	
   866                           ; 1 bytes @ 0x0
   867                           
   868                           
   869                           ; 1 bytes @ 0x0
   870     0020                     	ds	1
   871     0021                     I2C_Cmd@Dir:
   872     0021                     I2C_Write@DirW:	
   873                           ; 1 bytes @ 0x1
   874                           
   875                           
   876                           ; 1 bytes @ 0x1
   877     0021                     	ds	1
   878     0022                     ?_lectura_tiempo_posX:
   879     0022                     ?_lectura_tiempo_posY:	
   880                           ; 1 bytes @ 0x2
   881                           
   882     0022                     lectura_tiempo_posX@pos_uni:	
   883                           ; 1 bytes @ 0x2
   884                           
   885     0022                     lectura_tiempo_posY@pos_uni:	
   886                           ; 1 bytes @ 0x2
   887                           
   888     0022                     ??_AJUSTE_DS1307:	
   889                           ; 1 bytes @ 0x2
   890                           
   891                           
   892                           ; 1 bytes @ 0x2
   893     0022                     	ds	1
   894     0023                     lectura_tiempo_posX@pos_dec:
   895     0023                     lectura_tiempo_posY@pos_dec:	
   896                           ; 1 bytes @ 0x3
   897                           
   898                           
   899                           ; 1 bytes @ 0x3
   900     0023                     	ds	1
   901     0024                     lectura_tiempo_posX@pos_D3:
   902     0024                     lectura_tiempo_posY@pos_D3:	
   903                           ; 1 bytes @ 0x4
   904                           
   905                           
   906                           ; 1 bytes @ 0x4
   907     0024                     	ds	1
   908     0025                     lectura_tiempo_posX@caracter:
   909     0025                     lectura_tiempo_posY@caracter:	
   910                           ; 1 bytes @ 0x5
   911                           
   912                           
   913                           ; 1 bytes @ 0x5
   914     0025                     	ds	1
   915     0026                     lectura_tiempo_posX@registro_DS1307:
   916     0026                     lectura_tiempo_posY@registro_DS1307:	
   917                           ; 1 bytes @ 0x6
   918                           
   919                           
   920                           ; 1 bytes @ 0x6
   921     0026                     	ds	1
   922     0027                     ??_main:
   923                           
   924                           ; 1 bytes @ 0x7
   925     0027                     	ds	3
   926                           
   927                           	psect	maintext
   928     0526                     __pmaintext:	
   929 ;;
   930 ;;Main: autosize = 0, tempsize = 3, incstack = 0, save=0
   931 ;;
   932 ;; *************** function _main *****************
   933 ;; Defined at:
   934 ;;		line 13 in file "RELOJ_LCD_MAIN.c"
   935 ;; Parameters:    Size  Location     Type
   936 ;;		None
   937 ;; Auto vars:     Size  Location     Type
   938 ;;		None
   939 ;; Return value:  Size  Location     Type
   940 ;;                  1    wreg      void 
   941 ;; Registers used:
   942 ;;		wreg, fsr0l, fsr0h, status,2, status,0, pclath, cstack
   943 ;; Tracked objects:
   944 ;;		On entry : B00/0
   945 ;;		On exit  : 0/0
   946 ;;		Unchanged: 0/0
   947 ;; Data sizes:     COMMON   BANK0   BANK1   BANK3   BANK2
   948 ;;      Params:         0       0       0       0       0
   949 ;;      Locals:         0       0       0       0       0
   950 ;;      Temps:          0       3       0       0       0
   951 ;;      Totals:         0       3       0       0       0
   952 ;;Total ram usage:        3 bytes
   953 ;; Hardware stack levels required when called: 7
   954 ;; This function calls:
   955 ;;		_AJUSTE_DS1307
   956 ;;		_CFG_DS1307
   957 ;;		_I2C_Cmd
   958 ;;		_I2C_Initialize
   959 ;;		_I2C_P
   960 ;;		_Lcd_cmd
   961 ;;		_Lcd_inicio
   962 ;;		_Lcd_print_string
   963 ;;		_READ_DS1307
   964 ;; This function is called by:
   965 ;;		Startup code after reset
   966 ;; This function uses a non-reentrant model
   967 ;;
   968                           
   969     0526                     _main:	
   970                           ;psect for function _main
   971                           
   972     0526                     l1614:	
   973                           ;incstack = 0
   974                           ; Regs used in _main: [wreg-fsr0h+status,2+status,0+pclath+cstack]
   975                           
   976                           
   977                           ;RELOJ_LCD_MAIN.c: 15:     TRISA = 0;
   978     0526  1683               	bsf	3,5	;RP0=1, select bank1
   979     0527  1303               	bcf	3,6	;RP1=0, select bank1
   980     0528  0185               	clrf	5	;volatile
   981                           
   982                           ;RELOJ_LCD_MAIN.c: 16:     TRISD = 0;
   983     0529  0188               	clrf	8	;volatile
   984                           
   985                           ;RELOJ_LCD_MAIN.c: 17:     TRISE = 0;
   986     052A  0189               	clrf	9	;volatile
   987     052B                     l1616:
   988                           
   989                           ;RELOJ_LCD_MAIN.c: 18:     TRISC = 0X83;
   990     052B  3083               	movlw	131
   991     052C  0087               	movwf	7	;volatile
   992     052D                     l1618:
   993                           
   994                           ;RELOJ_LCD_MAIN.c: 19:     TRISB = 0xFF;
   995     052D  30FF               	movlw	255
   996     052E  0086               	movwf	6	;volatile
   997     052F                     l1620:
   998                           
   999                           ;RELOJ_LCD_MAIN.c: 20:     CMCON = 0x07;
  1000     052F  3007               	movlw	7
  1001     0530  009C               	movwf	28	;volatile
  1002     0531                     l1622:
  1003                           
  1004                           ;RELOJ_LCD_MAIN.c: 21:     OPTION_REGbits.nRBPU = 0;
  1005     0531  1381               	bcf	1,7	;volatile
  1006                           
  1007                           ;RELOJ_LCD_MAIN.c: 22:     PORTA = 0, PORTB = 0, PORTC = 0, PORTD = 0, PORTE = 0;
  1008     0532  1283               	bcf	3,5	;RP0=0, select bank0
  1009     0533  1303               	bcf	3,6	;RP1=0, select bank0
  1010     0534  0185               	clrf	5	;volatile
  1011     0535  0186               	clrf	6	;volatile
  1012     0536  0187               	clrf	7	;volatile
  1013     0537  0188               	clrf	8	;volatile
  1014     0538  0189               	clrf	9	;volatile
  1015     0539                     l1624:
  1016                           
  1017                           ;RELOJ_LCD_MAIN.c: 23:     CMCON = 0x07;
  1018     0539  3007               	movlw	7
  1019     053A  1683               	bsf	3,5	;RP0=1, select bank1
  1020     053B  1303               	bcf	3,6	;RP1=0, select bank1
  1021     053C  009C               	movwf	28	;volatile
  1022     053D                     l1626:
  1023                           
  1024                           ;RELOJ_LCD_MAIN.c: 24:     ADCON1bits.PCFG3 = 0, ADCON1bits.PCFG2 = 1, ADCON1bits.PCFG1 
      +                          = 1;
  1025     053D  119F               	bcf	31,3	;volatile
  1026     053E                     l1628:
  1027     053E  151F               	bsf	31,2	;volatile
  1028     053F                     l1630:
  1029     053F  149F               	bsf	31,1	;volatile
  1030     0540                     l1632:
  1031                           
  1032                           ;RELOJ_LCD_MAIN.c: 26:     Lcd_inicio();
  1033     0540  120A  118A  234F  120A  118A  	fcall	_Lcd_inicio
  1034     0545                     l1634:
  1035                           
  1036                           ;RELOJ_LCD_MAIN.c: 28:     I2C_Initialize();
  1037     0545  120A  118A  22B9  120A  118A  	fcall	_I2C_Initialize
  1038     054A                     l1636:
  1039                           
  1040                           ;RELOJ_LCD_MAIN.c: 30:     CFG_DS1307();
  1041     054A  120A  118A  22A9  120A  118A  	fcall	_CFG_DS1307
  1042     054F                     l1638:
  1043                           
  1044                           ;RELOJ_LCD_MAIN.c: 32:     Lcd_print_string(6,"Reloj",5,"Digital");
  1045     054F  308F               	movlw	(low ((STR_1-__stringbase)| (0+32768)))& (0+255)
  1046     0550  00F3               	movwf	Lcd_print_string@String_x
  1047     0551  3005               	movlw	5
  1048     0552  00F4               	movwf	Lcd_print_string@POSy
  1049     0553  3081               	movlw	(low ((STR_2-__stringbase)| (0+32768)))& (0+255)
  1050     0554  00F5               	movwf	Lcd_print_string@String_y
  1051     0555  3006               	movlw	6
  1052     0556  120A  118A  2459  120A  118A  	fcall	_Lcd_print_string
  1053     055B                     l1640:
  1054                           
  1055                           ;RELOJ_LCD_MAIN.c: 33:     _delay((unsigned long)((3000)*(4000000/4000.0)));
  1056     055B  3010               	movlw	16
  1057     055C  1283               	bcf	3,5	;RP0=0, select bank0
  1058     055D  1303               	bcf	3,6	;RP1=0, select bank0
  1059     055E  00A9               	movwf	??_main+2
  1060     055F  3039               	movlw	57
  1061     0560  00A8               	movwf	??_main+1
  1062     0561  300D               	movlw	13
  1063     0562  00A7               	movwf	??_main
  1064     0563                     u897:
  1065     0563  0BA7               	decfsz	??_main,f
  1066     0564  2D63               	goto	u897
  1067     0565  0BA8               	decfsz	??_main+1,f
  1068     0566  2D63               	goto	u897
  1069     0567  0BA9               	decfsz	??_main+2,f
  1070     0568  2D63               	goto	u897
  1071     0569                     l1642:
  1072                           
  1073                           ;RELOJ_LCD_MAIN.c: 34:     Lcd_cmd(1);
  1074     0569  3001               	movlw	1
  1075     056A  120A  118A  2282  120A  118A  	fcall	_Lcd_cmd
  1076     056F                     l1644:
  1077                           
  1078                           ;RELOJ_LCD_MAIN.c: 36:     I2C_Cmd(0xD0,0x00,0);
  1079     056F  01FC               	clrf	I2C_Cmd@Cfg
  1080     0570  01FD               	clrf	I2C_Cmd@Cmd
  1081     0571  30D0               	movlw	208
  1082     0572  120A  118A  259C  120A  118A  	fcall	_I2C_Cmd
  1083     0577                     l1646:
  1084                           
  1085                           ;RELOJ_LCD_MAIN.c: 37:     I2C_P();
  1086     0577  120A  118A  22C9  120A  118A  	fcall	_I2C_P
  1087     057C                     l1648:
  1088                           
  1089                           ;RELOJ_LCD_MAIN.c: 40:     {;RELOJ_LCD_MAIN.c: 41:         READ_DS1307();
  1090     057C  120A  118A  24B9  120A  118A  	fcall	_READ_DS1307
  1091     0581                     l1650:
  1092                           
  1093                           ;RELOJ_LCD_MAIN.c: 42:         if (PORTBbits.RB0 == 0)
  1094     0581  1283               	bcf	3,5	;RP0=0, select bank0
  1095     0582  1303               	bcf	3,6	;RP1=0, select bank0
  1096     0583  1806               	btfsc	6,0	;volatile
  1097     0584  2D86               	goto	u861
  1098     0585  2D87               	goto	u860
  1099     0586                     u861:
  1100     0586  2D7C               	goto	l1648
  1101     0587                     u860:
  1102     0587                     l1652:
  1103                           
  1104                           ;RELOJ_LCD_MAIN.c: 43:         {;RELOJ_LCD_MAIN.c: 44:             Lcd_cmd(1);
  1105     0587  3001               	movlw	1
  1106     0588  120A  118A  2282  120A  118A  	fcall	_Lcd_cmd
  1107     058D                     l1654:
  1108                           
  1109                           ;RELOJ_LCD_MAIN.c: 45:             AJUSTE_DS1307();
  1110     058D  120A  118A  269C  120A  118A  	fcall	_AJUSTE_DS1307
  1111     0592                     l1656:
  1112                           
  1113                           ;RELOJ_LCD_MAIN.c: 46:             Lcd_cmd(1);
  1114     0592  3001               	movlw	1
  1115     0593  120A  118A  2282  120A  118A  	fcall	_Lcd_cmd
  1116     0598  2D7C               	goto	l1648
  1117     0599  120A  118A  2800   	ljmp	start
  1118     059C                     __end_of_main:
  1119                           
  1120                           	psect	text1
  1121     04B9                     __ptext1:	
  1122 ;; *************** function _READ_DS1307 *****************
  1123 ;; Defined at:
  1124 ;;		line 41 in file "DS1307.c"
  1125 ;; Parameters:    Size  Location     Type
  1126 ;;		None
  1127 ;; Auto vars:     Size  Location     Type
  1128 ;;		None
  1129 ;; Return value:  Size  Location     Type
  1130 ;;                  1    wreg      void 
  1131 ;; Registers used:
  1132 ;;		wreg, fsr0l, fsr0h, status,2, status,0, pclath, cstack
  1133 ;; Tracked objects:
  1134 ;;		On entry : 0/0
  1135 ;;		On exit  : 0/0
  1136 ;;		Unchanged: 0/0
  1137 ;; Data sizes:     COMMON   BANK0   BANK1   BANK3   BANK2
  1138 ;;      Params:         0       0       0       0       0
  1139 ;;      Locals:         0       0       0       0       0
  1140 ;;      Temps:          0       0       0       0       0
  1141 ;;      Totals:         0       0       0       0       0
  1142 ;;Total ram usage:        0 bytes
  1143 ;; Hardware stack levels used: 1
  1144 ;; Hardware stack levels required when called: 6
  1145 ;; This function calls:
  1146 ;;		_Lcd_Write_Char
  1147 ;;		_Lcd_pos_y
  1148 ;;		_lectura_tiempo_posX
  1149 ;;		_lectura_tiempo_posY
  1150 ;; This function is called by:
  1151 ;;		_main
  1152 ;; This function uses a non-reentrant model
  1153 ;;
  1154                           
  1155     04B9                     _READ_DS1307:	
  1156                           ;psect for function _READ_DS1307
  1157                           
  1158     04B9                     l1510:	
  1159                           ;incstack = 0
  1160                           ; Regs used in _READ_DS1307: [wreg-fsr0h+status,2+status,0+pclath+cstack]
  1161                           
  1162                           
  1163                           ;DS1307.c: 43:     lectura_tiempo_posX(0x00,12,11,10,':');
  1164     04B9  300C               	movlw	12
  1165     04BA  1283               	bcf	3,5	;RP0=0, select bank0
  1166     04BB  1303               	bcf	3,6	;RP1=0, select bank0
  1167     04BC  00A2               	movwf	lectura_tiempo_posX@pos_uni
  1168     04BD  300B               	movlw	11
  1169     04BE  00A3               	movwf	lectura_tiempo_posX@pos_dec
  1170     04BF  300A               	movlw	10
  1171     04C0  00A4               	movwf	lectura_tiempo_posX@pos_D3
  1172     04C1  303A               	movlw	58
  1173     04C2  00A5               	movwf	lectura_tiempo_posX@caracter
  1174     04C3  3000               	movlw	0
  1175     04C4  120A  118A  23C3  120A  118A  	fcall	_lectura_tiempo_posX
  1176                           
  1177                           ;DS1307.c: 44:     lectura_tiempo_posX(0x01,9,8,7,':');
  1178     04C9  3009               	movlw	9
  1179     04CA  1283               	bcf	3,5	;RP0=0, select bank0
  1180     04CB  1303               	bcf	3,6	;RP1=0, select bank0
  1181     04CC  00A2               	movwf	lectura_tiempo_posX@pos_uni
  1182     04CD  3008               	movlw	8
  1183     04CE  00A3               	movwf	lectura_tiempo_posX@pos_dec
  1184     04CF  3007               	movlw	7
  1185     04D0  00A4               	movwf	lectura_tiempo_posX@pos_D3
  1186     04D1  303A               	movlw	58
  1187     04D2  00A5               	movwf	lectura_tiempo_posX@caracter
  1188     04D3  3001               	movlw	1
  1189     04D4  120A  118A  23C3  120A  118A  	fcall	_lectura_tiempo_posX
  1190                           
  1191                           ;DS1307.c: 45:     lectura_tiempo_posX(0x02,6,5,4,' ');
  1192     04D9  3006               	movlw	6
  1193     04DA  1283               	bcf	3,5	;RP0=0, select bank0
  1194     04DB  1303               	bcf	3,6	;RP1=0, select bank0
  1195     04DC  00A2               	movwf	lectura_tiempo_posX@pos_uni
  1196     04DD  3005               	movlw	5
  1197     04DE  00A3               	movwf	lectura_tiempo_posX@pos_dec
  1198     04DF  3004               	movlw	4
  1199     04E0  00A4               	movwf	lectura_tiempo_posX@pos_D3
  1200     04E1  3020               	movlw	32
  1201     04E2  00A5               	movwf	lectura_tiempo_posX@caracter
  1202     04E3  3002               	movlw	2
  1203     04E4  120A  118A  23C3  120A  118A  	fcall	_lectura_tiempo_posX
  1204                           
  1205                           ;DS1307.c: 46:     lectura_tiempo_posY(0x04,12,11,10,'-');
  1206     04E9  300C               	movlw	12
  1207     04EA  1283               	bcf	3,5	;RP0=0, select bank0
  1208     04EB  1303               	bcf	3,6	;RP1=0, select bank0
  1209     04EC  00A2               	movwf	lectura_tiempo_posY@pos_uni
  1210     04ED  300B               	movlw	11
  1211     04EE  00A3               	movwf	lectura_tiempo_posY@pos_dec
  1212     04EF  300A               	movlw	10
  1213     04F0  00A4               	movwf	lectura_tiempo_posY@pos_D3
  1214     04F1  302D               	movlw	45
  1215     04F2  00A5               	movwf	lectura_tiempo_posY@caracter
  1216     04F3  3004               	movlw	4
  1217     04F4  120A  118A  240E  120A  118A  	fcall	_lectura_tiempo_posY
  1218                           
  1219                           ;DS1307.c: 47:     lectura_tiempo_posY(0x05,9,8,7,'-');
  1220     04F9  3009               	movlw	9
  1221     04FA  1283               	bcf	3,5	;RP0=0, select bank0
  1222     04FB  1303               	bcf	3,6	;RP1=0, select bank0
  1223     04FC  00A2               	movwf	lectura_tiempo_posY@pos_uni
  1224     04FD  3008               	movlw	8
  1225     04FE  00A3               	movwf	lectura_tiempo_posY@pos_dec
  1226     04FF  3007               	movlw	7
  1227     0500  00A4               	movwf	lectura_tiempo_posY@pos_D3
  1228     0501  302D               	movlw	45
  1229     0502  00A5               	movwf	lectura_tiempo_posY@caracter
  1230     0503  3005               	movlw	5
  1231     0504  120A  118A  240E  120A  118A  	fcall	_lectura_tiempo_posY
  1232                           
  1233                           ;DS1307.c: 48:     lectura_tiempo_posY(0x06,6,5,4,'0');
  1234     0509  3006               	movlw	6
  1235     050A  1283               	bcf	3,5	;RP0=0, select bank0
  1236     050B  1303               	bcf	3,6	;RP1=0, select bank0
  1237     050C  00A2               	movwf	lectura_tiempo_posY@pos_uni
  1238     050D  3005               	movlw	5
  1239     050E  00A3               	movwf	lectura_tiempo_posY@pos_dec
  1240     050F  3004               	movlw	4
  1241     0510  00A4               	movwf	lectura_tiempo_posY@pos_D3
  1242     0511  3030               	movlw	48
  1243     0512  00A5               	movwf	lectura_tiempo_posY@caracter
  1244     0513  3006               	movlw	6
  1245     0514  120A  118A  240E  120A  118A  	fcall	_lectura_tiempo_posY
  1246     0519                     l1512:
  1247                           
  1248                           ;DS1307.c: 49:     Lcd_pos_y(3);
  1249     0519  3003               	movlw	3
  1250     051A  120A  118A  228D  120A  118A  	fcall	_Lcd_pos_y
  1251     051F                     l1514:
  1252                           
  1253                           ;DS1307.c: 50:     Lcd_Write_Char('2');
  1254     051F  3032               	movlw	50
  1255     0520  120A  118A  2277  120A  118A  	fcall	_Lcd_Write_Char
  1256     0525                     l292:
  1257     0525  0008               	return
  1258     0526                     __end_of_READ_DS1307:
  1259                           
  1260                           	psect	text2
  1261     040E                     __ptext2:	
  1262 ;; *************** function _lectura_tiempo_posY *****************
  1263 ;; Defined at:
  1264 ;;		line 28 in file "DS1307.c"
  1265 ;; Parameters:    Size  Location     Type
  1266 ;;  registro_DS1    1    wreg     unsigned char 
  1267 ;;  pos_uni         1    2[BANK0 ] unsigned char 
  1268 ;;  pos_dec         1    3[BANK0 ] unsigned char 
  1269 ;;  pos_D3          1    4[BANK0 ] unsigned char 
  1270 ;;  caracter        1    5[BANK0 ] unsigned char 
  1271 ;; Auto vars:     Size  Location     Type
  1272 ;;  registro_DS1    1    6[BANK0 ] unsigned char 
  1273 ;; Return value:  Size  Location     Type
  1274 ;;                  1    wreg      void 
  1275 ;; Registers used:
  1276 ;;		wreg, fsr0l, fsr0h, status,2, status,0, pclath, cstack
  1277 ;; Tracked objects:
  1278 ;;		On entry : 0/0
  1279 ;;		On exit  : 0/0
  1280 ;;		Unchanged: 0/0
  1281 ;; Data sizes:     COMMON   BANK0   BANK1   BANK3   BANK2
  1282 ;;      Params:         0       4       0       0       0
  1283 ;;      Locals:         0       1       0       0       0
  1284 ;;      Temps:          0       0       0       0       0
  1285 ;;      Totals:         0       5       0       0       0
  1286 ;;Total ram usage:        5 bytes
  1287 ;; Hardware stack levels used: 1
  1288 ;; Hardware stack levels required when called: 5
  1289 ;; This function calls:
  1290 ;;		_BCD_TO_DEC
  1291 ;;		_I2C_Read
  1292 ;;		_I2C_Write
  1293 ;;		_Lcd_Write_Char
  1294 ;;		_Lcd_pos_y
  1295 ;; This function is called by:
  1296 ;;		_READ_DS1307
  1297 ;; This function uses a non-reentrant model
  1298 ;;
  1299                           
  1300     040E                     _lectura_tiempo_posY:	
  1301                           ;psect for function _lectura_tiempo_posY
  1302                           
  1303                           
  1304                           ;incstack = 0
  1305                           ; Regs used in _lectura_tiempo_posY: [wreg-fsr0h+status,2+status,0+pclath+cstack]
  1306                           ;lectura_tiempo_posY@registro_DS1307 stored from wreg
  1307     040E  1283               	bcf	3,5	;RP0=0, select bank0
  1308     040F  1303               	bcf	3,6	;RP1=0, select bank0
  1309     0410  00A6               	movwf	lectura_tiempo_posY@registro_DS1307
  1310     0411                     l1476:
  1311                           
  1312                           ;DS1307.c: 28: void lectura_tiempo_posY(unsigned char registro_DS1307,unsigned char pos_
      +                          uni,unsigned char pos_dec,unsigned char pos_D3,unsigned char caracter);DS1307.c: 29: {;D
      +                          S1307.c: 30:         I2C_Write(0xD0,registro_DS1307,0xD1);
  1313     0411  0826               	movf	lectura_tiempo_posY@registro_DS1307,w
  1314     0412  00FC               	movwf	I2C_Write@CmdW
  1315     0413  30D1               	movlw	209
  1316     0414  00FD               	movwf	I2C_Write@DirW2
  1317     0415  30D0               	movlw	208
  1318     0416  120A  118A  2613  120A  118A  	fcall	_I2C_Write
  1319                           
  1320                           ;DS1307.c: 31:         I2C_Read();
  1321     041B  120A  118A  2386  120A  118A  	fcall	_I2C_Read
  1322     0420                     l1478:
  1323                           
  1324                           ;DS1307.c: 32:         BCD_TO_DEC(DATO_I2C);
  1325     0420  1283               	bcf	3,5	;RP0=0, select bank0
  1326     0421  1303               	bcf	3,6	;RP1=0, select bank0
  1327     0422  0831               	movf	_DATO_I2C,w
  1328     0423  120A  118A  2325  120A  118A  	fcall	_BCD_TO_DEC
  1329     0428                     l1480:
  1330                           
  1331                           ;DS1307.c: 33:         Lcd_pos_y(pos_uni);
  1332     0428  1283               	bcf	3,5	;RP0=0, select bank0
  1333     0429  1303               	bcf	3,6	;RP1=0, select bank0
  1334     042A  0822               	movf	lectura_tiempo_posY@pos_uni,w
  1335     042B  120A  118A  228D  120A  118A  	fcall	_Lcd_pos_y
  1336     0430                     l1482:
  1337                           
  1338                           ;DS1307.c: 34:         Lcd_Write_Char(unidades);
  1339     0430  1283               	bcf	3,5	;RP0=0, select bank0
  1340     0431  1303               	bcf	3,6	;RP1=0, select bank0
  1341     0432  082A               	movf	_unidades,w
  1342     0433  120A  118A  2277  120A  118A  	fcall	_Lcd_Write_Char
  1343     0438                     l1484:
  1344                           
  1345                           ;DS1307.c: 35:         Lcd_pos_y(pos_dec);
  1346     0438  1283               	bcf	3,5	;RP0=0, select bank0
  1347     0439  1303               	bcf	3,6	;RP1=0, select bank0
  1348     043A  0823               	movf	lectura_tiempo_posY@pos_dec,w
  1349     043B  120A  118A  228D  120A  118A  	fcall	_Lcd_pos_y
  1350     0440                     l1486:
  1351                           
  1352                           ;DS1307.c: 36:         Lcd_Write_Char(decenas);
  1353     0440  1283               	bcf	3,5	;RP0=0, select bank0
  1354     0441  1303               	bcf	3,6	;RP1=0, select bank0
  1355     0442  082B               	movf	_decenas,w
  1356     0443  120A  118A  2277  120A  118A  	fcall	_Lcd_Write_Char
  1357     0448                     l1488:
  1358                           
  1359                           ;DS1307.c: 37:         Lcd_pos_y(pos_D3);
  1360     0448  1283               	bcf	3,5	;RP0=0, select bank0
  1361     0449  1303               	bcf	3,6	;RP1=0, select bank0
  1362     044A  0824               	movf	lectura_tiempo_posY@pos_D3,w
  1363     044B  120A  118A  228D  120A  118A  	fcall	_Lcd_pos_y
  1364     0450                     l1490:
  1365                           
  1366                           ;DS1307.c: 38:         Lcd_Write_Char(caracter);
  1367     0450  1283               	bcf	3,5	;RP0=0, select bank0
  1368     0451  1303               	bcf	3,6	;RP1=0, select bank0
  1369     0452  0825               	movf	lectura_tiempo_posY@caracter,w
  1370     0453  120A  118A  2277  120A  118A  	fcall	_Lcd_Write_Char
  1371     0458                     l289:
  1372     0458  0008               	return
  1373     0459                     __end_of_lectura_tiempo_posY:
  1374                           
  1375                           	psect	text3
  1376     03C3                     __ptext3:	
  1377 ;; *************** function _lectura_tiempo_posX *****************
  1378 ;; Defined at:
  1379 ;;		line 14 in file "DS1307.c"
  1380 ;; Parameters:    Size  Location     Type
  1381 ;;  registro_DS1    1    wreg     unsigned char 
  1382 ;;  pos_uni         1    2[BANK0 ] unsigned char 
  1383 ;;  pos_dec         1    3[BANK0 ] unsigned char 
  1384 ;;  pos_D3          1    4[BANK0 ] unsigned char 
  1385 ;;  caracter        1    5[BANK0 ] unsigned char 
  1386 ;; Auto vars:     Size  Location     Type
  1387 ;;  registro_DS1    1    6[BANK0 ] unsigned char 
  1388 ;; Return value:  Size  Location     Type
  1389 ;;                  1    wreg      void 
  1390 ;; Registers used:
  1391 ;;		wreg, fsr0l, fsr0h, status,2, status,0, pclath, cstack
  1392 ;; Tracked objects:
  1393 ;;		On entry : 0/0
  1394 ;;		On exit  : 0/0
  1395 ;;		Unchanged: 0/0
  1396 ;; Data sizes:     COMMON   BANK0   BANK1   BANK3   BANK2
  1397 ;;      Params:         0       4       0       0       0
  1398 ;;      Locals:         0       1       0       0       0
  1399 ;;      Temps:          0       0       0       0       0
  1400 ;;      Totals:         0       5       0       0       0
  1401 ;;Total ram usage:        5 bytes
  1402 ;; Hardware stack levels used: 1
  1403 ;; Hardware stack levels required when called: 5
  1404 ;; This function calls:
  1405 ;;		_BCD_TO_DEC
  1406 ;;		_I2C_Read
  1407 ;;		_I2C_Write
  1408 ;;		_Lcd_Write_Char
  1409 ;;		_Lcd_pos_x
  1410 ;; This function is called by:
  1411 ;;		_READ_DS1307
  1412 ;; This function uses a non-reentrant model
  1413 ;;
  1414                           
  1415     03C3                     _lectura_tiempo_posX:	
  1416                           ;psect for function _lectura_tiempo_posX
  1417                           
  1418                           
  1419                           ;incstack = 0
  1420                           ; Regs used in _lectura_tiempo_posX: [wreg-fsr0h+status,2+status,0+pclath+cstack]
  1421                           ;lectura_tiempo_posX@registro_DS1307 stored from wreg
  1422     03C3  1283               	bcf	3,5	;RP0=0, select bank0
  1423     03C4  1303               	bcf	3,6	;RP1=0, select bank0
  1424     03C5  00A6               	movwf	lectura_tiempo_posX@registro_DS1307
  1425     03C6                     l1460:
  1426                           
  1427                           ;DS1307.c: 14: void lectura_tiempo_posX(unsigned char registro_DS1307,unsigned char pos_
      +                          uni,unsigned char pos_dec,unsigned char pos_D3,unsigned char caracter);DS1307.c: 15: {;D
      +                          S1307.c: 16:         I2C_Write(0xD0,registro_DS1307,0xD1);
  1428     03C6  0826               	movf	lectura_tiempo_posX@registro_DS1307,w
  1429     03C7  00FC               	movwf	I2C_Write@CmdW
  1430     03C8  30D1               	movlw	209
  1431     03C9  00FD               	movwf	I2C_Write@DirW2
  1432     03CA  30D0               	movlw	208
  1433     03CB  120A  118A  2613  120A  118A  	fcall	_I2C_Write
  1434                           
  1435                           ;DS1307.c: 17:         I2C_Read();
  1436     03D0  120A  118A  2386  120A  118A  	fcall	_I2C_Read
  1437     03D5                     l1462:
  1438                           
  1439                           ;DS1307.c: 18:         BCD_TO_DEC(DATO_I2C);
  1440     03D5  1283               	bcf	3,5	;RP0=0, select bank0
  1441     03D6  1303               	bcf	3,6	;RP1=0, select bank0
  1442     03D7  0831               	movf	_DATO_I2C,w
  1443     03D8  120A  118A  2325  120A  118A  	fcall	_BCD_TO_DEC
  1444     03DD                     l1464:
  1445                           
  1446                           ;DS1307.c: 19:         Lcd_pos_x(pos_uni);
  1447     03DD  1283               	bcf	3,5	;RP0=0, select bank0
  1448     03DE  1303               	bcf	3,6	;RP1=0, select bank0
  1449     03DF  0822               	movf	lectura_tiempo_posX@pos_uni,w
  1450     03E0  120A  118A  229B  120A  118A  	fcall	_Lcd_pos_x
  1451     03E5                     l1466:
  1452                           
  1453                           ;DS1307.c: 20:         Lcd_Write_Char(unidades);
  1454     03E5  1283               	bcf	3,5	;RP0=0, select bank0
  1455     03E6  1303               	bcf	3,6	;RP1=0, select bank0
  1456     03E7  082A               	movf	_unidades,w
  1457     03E8  120A  118A  2277  120A  118A  	fcall	_Lcd_Write_Char
  1458     03ED                     l1468:
  1459                           
  1460                           ;DS1307.c: 21:         Lcd_pos_x(pos_dec);
  1461     03ED  1283               	bcf	3,5	;RP0=0, select bank0
  1462     03EE  1303               	bcf	3,6	;RP1=0, select bank0
  1463     03EF  0823               	movf	lectura_tiempo_posX@pos_dec,w
  1464     03F0  120A  118A  229B  120A  118A  	fcall	_Lcd_pos_x
  1465     03F5                     l1470:
  1466                           
  1467                           ;DS1307.c: 22:         Lcd_Write_Char(decenas);
  1468     03F5  1283               	bcf	3,5	;RP0=0, select bank0
  1469     03F6  1303               	bcf	3,6	;RP1=0, select bank0
  1470     03F7  082B               	movf	_decenas,w
  1471     03F8  120A  118A  2277  120A  118A  	fcall	_Lcd_Write_Char
  1472     03FD                     l1472:
  1473                           
  1474                           ;DS1307.c: 23:         Lcd_pos_x(pos_D3);
  1475     03FD  1283               	bcf	3,5	;RP0=0, select bank0
  1476     03FE  1303               	bcf	3,6	;RP1=0, select bank0
  1477     03FF  0824               	movf	lectura_tiempo_posX@pos_D3,w
  1478     0400  120A  118A  229B  120A  118A  	fcall	_Lcd_pos_x
  1479     0405                     l1474:
  1480                           
  1481                           ;DS1307.c: 24:         Lcd_Write_Char(caracter);
  1482     0405  1283               	bcf	3,5	;RP0=0, select bank0
  1483     0406  1303               	bcf	3,6	;RP1=0, select bank0
  1484     0407  0825               	movf	lectura_tiempo_posX@caracter,w
  1485     0408  120A  118A  2277  120A  118A  	fcall	_Lcd_Write_Char
  1486     040D                     l286:
  1487     040D  0008               	return
  1488     040E                     __end_of_lectura_tiempo_posX:
  1489                           
  1490                           	psect	text4
  1491     029B                     __ptext4:	
  1492 ;; *************** function _Lcd_pos_x *****************
  1493 ;; Defined at:
  1494 ;;		line 75 in file "LCD.c"
  1495 ;; Parameters:    Size  Location     Type
  1496 ;;  POSx            1    wreg     unsigned char 
  1497 ;; Auto vars:     Size  Location     Type
  1498 ;;  POSx            1    2[COMMON] unsigned char 
  1499 ;;  a               1    3[COMMON] unsigned char 
  1500 ;; Return value:  Size  Location     Type
  1501 ;;                  1    wreg      void 
  1502 ;; Registers used:
  1503 ;;		wreg, status,2, status,0, pclath, cstack
  1504 ;; Tracked objects:
  1505 ;;		On entry : 0/0
  1506 ;;		On exit  : 0/0
  1507 ;;		Unchanged: 0/0
  1508 ;; Data sizes:     COMMON   BANK0   BANK1   BANK3   BANK2
  1509 ;;      Params:         0       0       0       0       0
  1510 ;;      Locals:         2       0       0       0       0
  1511 ;;      Temps:          0       0       0       0       0
  1512 ;;      Totals:         2       0       0       0       0
  1513 ;;Total ram usage:        2 bytes
  1514 ;; Hardware stack levels used: 1
  1515 ;; Hardware stack levels required when called: 1
  1516 ;; This function calls:
  1517 ;;		_Lcd_out_cmd
  1518 ;; This function is called by:
  1519 ;;		_lectura_tiempo_posX
  1520 ;; This function uses a non-reentrant model
  1521 ;;
  1522                           
  1523     029B                     _Lcd_pos_x:	
  1524                           ;psect for function _Lcd_pos_x
  1525                           
  1526                           
  1527                           ;incstack = 0
  1528                           ; Regs used in _Lcd_pos_x: [wreg+status,2+status,0+pclath+cstack]
  1529                           ;Lcd_pos_x@POSx stored from wreg
  1530     029B  00F2               	movwf	Lcd_pos_x@POSx
  1531     029C                     l1336:
  1532                           
  1533                           ;LCD.c: 75: void Lcd_pos_x(unsigned char POSx);LCD.c: 76: {;LCD.c: 77:     unsigned char
      +                           a;;LCD.c: 78:     a = 0x80 + POSx - 1;
  1534     029C  0872               	movf	Lcd_pos_x@POSx,w
  1535     029D  3E7F               	addlw	127
  1536     029E  00F3               	movwf	Lcd_pos_x@a
  1537     029F                     l1338:
  1538                           
  1539                           ;LCD.c: 79:     PORTD = a;
  1540     029F  0873               	movf	Lcd_pos_x@a,w
  1541     02A0  1283               	bcf	3,5	;RP0=0, select bank0
  1542     02A1  1303               	bcf	3,6	;RP1=0, select bank0
  1543     02A2  0088               	movwf	8	;volatile
  1544     02A3                     l1340:
  1545                           
  1546                           ;LCD.c: 80:     Lcd_out_cmd();
  1547     02A3  120A  118A  22F3  120A  118A  	fcall	_Lcd_out_cmd
  1548     02A8                     l128:
  1549     02A8  0008               	return
  1550     02A9                     __end_of_Lcd_pos_x:
  1551                           
  1552                           	psect	text5
  1553     0613                     __ptext5:	
  1554 ;; *************** function _I2C_Write *****************
  1555 ;; Defined at:
  1556 ;;		line 63 in file "I2C.c"
  1557 ;; Parameters:    Size  Location     Type
  1558 ;;  DirW            1    wreg     unsigned char 
  1559 ;;  CmdW            1   12[COMMON] unsigned char 
  1560 ;;  DirW2           1   13[COMMON] unsigned char 
  1561 ;; Auto vars:     Size  Location     Type
  1562 ;;  DirW            1    1[BANK0 ] unsigned char 
  1563 ;; Return value:  Size  Location     Type
  1564 ;;                  1    wreg      void 
  1565 ;; Registers used:
  1566 ;;		wreg, fsr0l, fsr0h, status,2, status,0, pclath, cstack
  1567 ;; Tracked objects:
  1568 ;;		On entry : 0/0
  1569 ;;		On exit  : 0/0
  1570 ;;		Unchanged: 0/0
  1571 ;; Data sizes:     COMMON   BANK0   BANK1   BANK3   BANK2
  1572 ;;      Params:         2       0       0       0       0
  1573 ;;      Locals:         0       1       0       0       0
  1574 ;;      Temps:          0       1       0       0       0
  1575 ;;      Totals:         2       2       0       0       0
  1576 ;;Total ram usage:        4 bytes
  1577 ;; Hardware stack levels used: 1
  1578 ;; Hardware stack levels required when called: 4
  1579 ;; This function calls:
  1580 ;;		_I2C_Check
  1581 ;; This function is called by:
  1582 ;;		_lectura_tiempo_posX
  1583 ;;		_lectura_tiempo_posY
  1584 ;; This function uses a non-reentrant model
  1585 ;;
  1586                           
  1587     0613                     _I2C_Write:	
  1588                           ;psect for function _I2C_Write
  1589                           
  1590                           
  1591                           ;incstack = 0
  1592                           ; Regs used in _I2C_Write: [wreg-fsr0h+status,2+status,0+pclath+cstack]
  1593                           ;I2C_Write@DirW stored from wreg
  1594     0613  1283               	bcf	3,5	;RP0=0, select bank0
  1595     0614  1303               	bcf	3,6	;RP1=0, select bank0
  1596     0615  00A1               	movwf	I2C_Write@DirW
  1597     0616                     l1348:
  1598                           
  1599                           ;I2C.c: 63: void I2C_Write(unsigned char DirW,unsigned char CmdW,unsigned char DirW2);I2
      +                          C.c: 64: {;I2C.c: 65:     I2C_Check();
  1600     0616  120A  118A  230B  120A  118A  	fcall	_I2C_Check
  1601     061B                     l1350:
  1602                           
  1603                           ;I2C.c: 66:     SSPCON2bits.SEN = 1;
  1604     061B  1683               	bsf	3,5	;RP0=1, select bank1
  1605     061C  1303               	bcf	3,6	;RP1=0, select bank1
  1606     061D  1411               	bsf	17,0	;volatile
  1607     061E                     l1352:
  1608                           
  1609                           ;I2C.c: 67:     _delay((unsigned long)((5)*(4000000/4000000.0)));
  1610     061E  2E1F               	nop2	;2 cycle nop
  1611     061F  2E20               	nop2	;2 cycle nop
  1612     0620  0000               	nop
  1613     0621                     l201:	
  1614                           ;I2C.c: 69:     {;I2C.c: 70:     }
  1615                           
  1616                           
  1617                           ;I2C.c: 68:     while (SSPCON2bits.SEN == 1)
  1618     0621  1683               	bsf	3,5	;RP0=1, select bank1
  1619     0622  1303               	bcf	3,6	;RP1=0, select bank1
  1620     0623  1811               	btfsc	17,0	;volatile
  1621     0624  2E26               	goto	u491
  1622     0625  2E27               	goto	u490
  1623     0626                     u491:
  1624     0626  2E21               	goto	l201
  1625     0627                     u490:
  1626     0627                     l1354:
  1627                           
  1628                           ;I2C.c: 71:     I2C_Check();
  1629     0627  120A  118A  230B  120A  118A  	fcall	_I2C_Check
  1630     062C                     l1356:
  1631                           
  1632                           ;I2C.c: 72:     SSPBUF = DirW;
  1633     062C  1283               	bcf	3,5	;RP0=0, select bank0
  1634     062D  1303               	bcf	3,6	;RP1=0, select bank0
  1635     062E  0821               	movf	I2C_Write@DirW,w
  1636     062F  0093               	movwf	19	;volatile
  1637     0630                     l1358:
  1638                           
  1639                           ;I2C.c: 73:     _delay((unsigned long)((500)*(4000000/4000000.0)));
  1640     0630  30A5               	movlw	165
  1641     0631  1283               	bcf	3,5	;RP0=0, select bank0
  1642     0632  1303               	bcf	3,6	;RP1=0, select bank0
  1643     0633  00A0               	movwf	??_I2C_Write
  1644     0634                     u907:
  1645     0634  0BA0               	decfsz	??_I2C_Write,f
  1646     0635  2E34               	goto	u907
  1647     0636  2E37               	nop2
  1648     0637                     l204:	
  1649                           ;I2C.c: 75:     {;I2C.c: 76:     }
  1650                           
  1651                           
  1652                           ;I2C.c: 74:     while (SSPSTATbits.BF == 1)
  1653     0637  1683               	bsf	3,5	;RP0=1, select bank1
  1654     0638  1303               	bcf	3,6	;RP1=0, select bank1
  1655     0639  1814               	btfsc	20,0	;volatile
  1656     063A  2E3C               	goto	u501
  1657     063B  2E3D               	goto	u500
  1658     063C                     u501:
  1659     063C  2E37               	goto	l204
  1660     063D                     u500:
  1661     063D                     l1360:
  1662                           
  1663                           ;I2C.c: 77:     I2C_Check();
  1664     063D  120A  118A  230B  120A  118A  	fcall	_I2C_Check
  1665     0642                     l207:	
  1666                           ;I2C.c: 79:     {;I2C.c: 80:     }
  1667                           
  1668                           
  1669                           ;I2C.c: 78:     while (SSPCON2bits.ACKSTAT == 1)
  1670     0642  1683               	bsf	3,5	;RP0=1, select bank1
  1671     0643  1303               	bcf	3,6	;RP1=0, select bank1
  1672     0644  1B11               	btfsc	17,6	;volatile
  1673     0645  2E47               	goto	u511
  1674     0646  2E48               	goto	u510
  1675     0647                     u511:
  1676     0647  2E42               	goto	l207
  1677     0648                     u510:
  1678     0648                     l1362:
  1679                           
  1680                           ;I2C.c: 82:     I2C_Check();
  1681     0648  120A  118A  230B  120A  118A  	fcall	_I2C_Check
  1682     064D                     l1364:
  1683                           
  1684                           ;I2C.c: 83:     SSPBUF = CmdW;
  1685     064D  087C               	movf	I2C_Write@CmdW,w
  1686     064E  1283               	bcf	3,5	;RP0=0, select bank0
  1687     064F  1303               	bcf	3,6	;RP1=0, select bank0
  1688     0650  0093               	movwf	19	;volatile
  1689     0651                     l1366:
  1690                           
  1691                           ;I2C.c: 84:     _delay((unsigned long)((500)*(4000000/4000000.0)));
  1692     0651  30A5               	movlw	165
  1693     0652  1283               	bcf	3,5	;RP0=0, select bank0
  1694     0653  1303               	bcf	3,6	;RP1=0, select bank0
  1695     0654  00A0               	movwf	??_I2C_Write
  1696     0655                     u917:
  1697     0655  0BA0               	decfsz	??_I2C_Write,f
  1698     0656  2E55               	goto	u917
  1699     0657  2E58               	nop2
  1700     0658                     l210:	
  1701                           ;I2C.c: 86:     {;I2C.c: 87:     }
  1702                           
  1703                           
  1704                           ;I2C.c: 85:     while (SSPSTATbits.BF == 1)
  1705     0658  1683               	bsf	3,5	;RP0=1, select bank1
  1706     0659  1303               	bcf	3,6	;RP1=0, select bank1
  1707     065A  1814               	btfsc	20,0	;volatile
  1708     065B  2E5D               	goto	u521
  1709     065C  2E5E               	goto	u520
  1710     065D                     u521:
  1711     065D  2E58               	goto	l210
  1712     065E                     u520:
  1713     065E                     l1368:
  1714                           
  1715                           ;I2C.c: 88:     I2C_Check();
  1716     065E  120A  118A  230B  120A  118A  	fcall	_I2C_Check
  1717     0663                     l213:	
  1718                           ;I2C.c: 90:     {;I2C.c: 91:     }
  1719                           
  1720                           
  1721                           ;I2C.c: 89:     while (SSPCON2bits.ACKSTAT == 1)
  1722     0663  1683               	bsf	3,5	;RP0=1, select bank1
  1723     0664  1303               	bcf	3,6	;RP1=0, select bank1
  1724     0665  1B11               	btfsc	17,6	;volatile
  1725     0666  2E68               	goto	u531
  1726     0667  2E69               	goto	u530
  1727     0668                     u531:
  1728     0668  2E63               	goto	l213
  1729     0669                     u530:
  1730     0669                     l1370:
  1731                           
  1732                           ;I2C.c: 93:     I2C_Check();
  1733     0669  120A  118A  230B  120A  118A  	fcall	_I2C_Check
  1734     066E                     l1372:
  1735                           
  1736                           ;I2C.c: 94:     SSPCON2bits.RSEN = 1;
  1737     066E  1683               	bsf	3,5	;RP0=1, select bank1
  1738     066F  1303               	bcf	3,6	;RP1=0, select bank1
  1739     0670  1491               	bsf	17,1	;volatile
  1740     0671                     l1374:
  1741                           
  1742                           ;I2C.c: 95:     _delay((unsigned long)((5)*(4000000/4000000.0)));
  1743     0671  2E72               	nop2	;2 cycle nop
  1744     0672  2E73               	nop2	;2 cycle nop
  1745     0673  0000               	nop
  1746     0674                     l216:	
  1747                           ;I2C.c: 97:     {;I2C.c: 98:     }
  1748                           
  1749                           
  1750                           ;I2C.c: 96:     while (SSPCON2bits.RSEN == 0)
  1751     0674  1683               	bsf	3,5	;RP0=1, select bank1
  1752     0675  1303               	bcf	3,6	;RP1=0, select bank1
  1753     0676  1C91               	btfss	17,1	;volatile
  1754     0677  2E79               	goto	u541
  1755     0678  2E7A               	goto	u540
  1756     0679                     u541:
  1757     0679  2E74               	goto	l216
  1758     067A                     u540:
  1759     067A                     l1376:
  1760                           
  1761                           ;I2C.c: 100:     I2C_Check();
  1762     067A  120A  118A  230B  120A  118A  	fcall	_I2C_Check
  1763     067F                     l1378:
  1764                           
  1765                           ;I2C.c: 101:     SSPBUF = DirW2;
  1766     067F  087D               	movf	I2C_Write@DirW2,w
  1767     0680  1283               	bcf	3,5	;RP0=0, select bank0
  1768     0681  1303               	bcf	3,6	;RP1=0, select bank0
  1769     0682  0093               	movwf	19	;volatile
  1770     0683                     l1380:
  1771                           
  1772                           ;I2C.c: 102:     _delay((unsigned long)((500)*(4000000/4000000.0)));
  1773     0683  30A5               	movlw	165
  1774     0684  1283               	bcf	3,5	;RP0=0, select bank0
  1775     0685  1303               	bcf	3,6	;RP1=0, select bank0
  1776     0686  00A0               	movwf	??_I2C_Write
  1777     0687                     u927:
  1778     0687  0BA0               	decfsz	??_I2C_Write,f
  1779     0688  2E87               	goto	u927
  1780     0689  2E8A               	nop2
  1781     068A                     l219:	
  1782                           ;I2C.c: 104:     {;I2C.c: 105:     }
  1783                           
  1784                           
  1785                           ;I2C.c: 103:     while (SSPSTATbits.BF == 1)
  1786     068A  1683               	bsf	3,5	;RP0=1, select bank1
  1787     068B  1303               	bcf	3,6	;RP1=0, select bank1
  1788     068C  1814               	btfsc	20,0	;volatile
  1789     068D  2E8F               	goto	u551
  1790     068E  2E90               	goto	u550
  1791     068F                     u551:
  1792     068F  2E8A               	goto	l219
  1793     0690                     u550:
  1794     0690                     l1382:
  1795                           
  1796                           ;I2C.c: 106:     I2C_Check();
  1797     0690  120A  118A  230B  120A  118A  	fcall	_I2C_Check
  1798     0695                     l222:	
  1799                           ;I2C.c: 108:     {;I2C.c: 109:     }
  1800                           
  1801                           
  1802                           ;I2C.c: 107:     while (SSPCON2bits.ACKSTAT == 1)
  1803     0695  1683               	bsf	3,5	;RP0=1, select bank1
  1804     0696  1303               	bcf	3,6	;RP1=0, select bank1
  1805     0697  1B11               	btfsc	17,6	;volatile
  1806     0698  2E9A               	goto	u561
  1807     0699  2E9B               	goto	u560
  1808     069A                     u561:
  1809     069A  2E95               	goto	l222
  1810     069B                     u560:
  1811     069B                     l225:
  1812     069B  0008               	return
  1813     069C                     __end_of_I2C_Write:
  1814                           
  1815                           	psect	text6
  1816     0386                     __ptext6:	
  1817 ;; *************** function _I2C_Read *****************
  1818 ;; Defined at:
  1819 ;;		line 112 in file "I2C.c"
  1820 ;; Parameters:    Size  Location     Type
  1821 ;;		None
  1822 ;; Auto vars:     Size  Location     Type
  1823 ;;		None
  1824 ;; Return value:  Size  Location     Type
  1825 ;;                  1    wreg      void 
  1826 ;; Registers used:
  1827 ;;		wreg, fsr0l, fsr0h, status,2, status,0, pclath, cstack
  1828 ;; Tracked objects:
  1829 ;;		On entry : 0/0
  1830 ;;		On exit  : 0/0
  1831 ;;		Unchanged: 0/0
  1832 ;; Data sizes:     COMMON   BANK0   BANK1   BANK3   BANK2
  1833 ;;      Params:         0       0       0       0       0
  1834 ;;      Locals:         0       0       0       0       0
  1835 ;;      Temps:          0       0       0       0       0
  1836 ;;      Totals:         0       0       0       0       0
  1837 ;;Total ram usage:        0 bytes
  1838 ;; Hardware stack levels used: 1
  1839 ;; Hardware stack levels required when called: 4
  1840 ;; This function calls:
  1841 ;;		_I2C_Check
  1842 ;; This function is called by:
  1843 ;;		_lectura_tiempo_posX
  1844 ;;		_lectura_tiempo_posY
  1845 ;; This function uses a non-reentrant model
  1846 ;;
  1847                           
  1848     0386                     _I2C_Read:	
  1849                           ;psect for function _I2C_Read
  1850                           
  1851     0386                     l1384:	
  1852                           ;incstack = 0
  1853                           ; Regs used in _I2C_Read: [wreg-fsr0h+status,2+status,0+pclath+cstack]
  1854                           
  1855                           
  1856                           ;I2C.c: 114:     I2C_Check();
  1857     0386  120A  118A  230B  120A  118A  	fcall	_I2C_Check
  1858     038B                     l1386:
  1859                           
  1860                           ;I2C.c: 115:     SSPCON2bits.RCEN = 1;
  1861     038B  1683               	bsf	3,5	;RP0=1, select bank1
  1862     038C  1303               	bcf	3,6	;RP1=0, select bank1
  1863     038D  1591               	bsf	17,3	;volatile
  1864     038E                     l1388:
  1865                           
  1866                           ;I2C.c: 116:     _delay((unsigned long)((5)*(4000000/4000000.0)));
  1867     038E  2B8F               	nop2	;2 cycle nop
  1868     038F  2B90               	nop2	;2 cycle nop
  1869     0390  0000               	nop
  1870     0391                     l228:	
  1871                           ;I2C.c: 118:     {;I2C.c: 119:     }
  1872                           
  1873                           
  1874                           ;I2C.c: 117:     while (SSPCON2bits.RCEN == 1)
  1875     0391  1683               	bsf	3,5	;RP0=1, select bank1
  1876     0392  1303               	bcf	3,6	;RP1=0, select bank1
  1877     0393  1991               	btfsc	17,3	;volatile
  1878     0394  2B96               	goto	u571
  1879     0395  2B97               	goto	u570
  1880     0396                     u571:
  1881     0396  2B91               	goto	l228
  1882     0397                     u570:
  1883     0397                     l1390:
  1884                           
  1885                           ;I2C.c: 120:     I2C_Check();
  1886     0397  120A  118A  230B  120A  118A  	fcall	_I2C_Check
  1887     039C                     l1392:
  1888                           
  1889                           ;I2C.c: 121:     SSPCON2bits.ACKDT =1;
  1890     039C  1683               	bsf	3,5	;RP0=1, select bank1
  1891     039D  1303               	bcf	3,6	;RP1=0, select bank1
  1892     039E  1691               	bsf	17,5	;volatile
  1893     039F                     l1394:
  1894                           
  1895                           ;I2C.c: 122:     _delay((unsigned long)((5)*(4000000/4000000.0)));
  1896     039F  2BA0               	nop2	;2 cycle nop
  1897     03A0  2BA1               	nop2	;2 cycle nop
  1898     03A1  0000               	nop
  1899                           
  1900                           ;I2C.c: 123:     I2C_Check();
  1901     03A2  120A  118A  230B  120A  118A  	fcall	_I2C_Check
  1902     03A7                     l1396:
  1903                           
  1904                           ;I2C.c: 124:     SSPCON2bits.ACKEN = 1;
  1905     03A7  1683               	bsf	3,5	;RP0=1, select bank1
  1906     03A8  1303               	bcf	3,6	;RP1=0, select bank1
  1907     03A9  1611               	bsf	17,4	;volatile
  1908     03AA                     l1398:
  1909                           
  1910                           ;I2C.c: 125:     _delay((unsigned long)((5)*(4000000/4000000.0)));
  1911     03AA  2BAB               	nop2	;2 cycle nop
  1912     03AB  2BAC               	nop2	;2 cycle nop
  1913     03AC  0000               	nop
  1914                           
  1915                           ;I2C.c: 126:     I2C_Check();
  1916     03AD  120A  118A  230B  120A  118A  	fcall	_I2C_Check
  1917     03B2                     l1400:
  1918                           
  1919                           ;I2C.c: 127:     SSPCON2bits.PEN = 1;
  1920     03B2  1683               	bsf	3,5	;RP0=1, select bank1
  1921     03B3  1303               	bcf	3,6	;RP1=0, select bank1
  1922     03B4  1511               	bsf	17,2	;volatile
  1923     03B5                     l1402:
  1924                           
  1925                           ;I2C.c: 128:     _delay((unsigned long)((5)*(4000000/4000000.0)));
  1926     03B5  2BB6               	nop2	;2 cycle nop
  1927     03B6  2BB7               	nop2	;2 cycle nop
  1928     03B7  0000               	nop
  1929     03B8                     l231:	
  1930                           ;I2C.c: 130:     {;I2C.c: 131:     }
  1931                           
  1932                           
  1933                           ;I2C.c: 129:     while (SSPSTATbits.P == 0)
  1934     03B8  1683               	bsf	3,5	;RP0=1, select bank1
  1935     03B9  1303               	bcf	3,6	;RP1=0, select bank1
  1936     03BA  1E14               	btfss	20,4	;volatile
  1937     03BB  2BBD               	goto	u581
  1938     03BC  2BBE               	goto	u580
  1939     03BD                     u581:
  1940     03BD  2BB8               	goto	l231
  1941     03BE                     u580:
  1942     03BE                     l1404:
  1943                           
  1944                           ;I2C.c: 132:     DATO_I2C = SSPBUF;
  1945     03BE  1283               	bcf	3,5	;RP0=0, select bank0
  1946     03BF  1303               	bcf	3,6	;RP1=0, select bank0
  1947     03C0  0813               	movf	19,w	;volatile
  1948     03C1  00B1               	movwf	_DATO_I2C
  1949     03C2                     l234:
  1950     03C2  0008               	return
  1951     03C3                     __end_of_I2C_Read:
  1952                           
  1953                           	psect	text7
  1954     0325                     __ptext7:	
  1955 ;; *************** function _BCD_TO_DEC *****************
  1956 ;; Defined at:
  1957 ;;		line 18 in file "BCD_CONVER.c"
  1958 ;; Parameters:    Size  Location     Type
  1959 ;;  dato            1    wreg     unsigned char 
  1960 ;; Auto vars:     Size  Location     Type
  1961 ;;  dato            1    1[COMMON] unsigned char 
  1962 ;; Return value:  Size  Location     Type
  1963 ;;                  1    wreg      unsigned char 
  1964 ;; Registers used:
  1965 ;;		wreg, status,2, status,0
  1966 ;; Tracked objects:
  1967 ;;		On entry : 0/0
  1968 ;;		On exit  : 0/0
  1969 ;;		Unchanged: 0/0
  1970 ;; Data sizes:     COMMON   BANK0   BANK1   BANK3   BANK2
  1971 ;;      Params:         0       0       0       0       0
  1972 ;;      Locals:         1       0       0       0       0
  1973 ;;      Temps:          1       0       0       0       0
  1974 ;;      Totals:         2       0       0       0       0
  1975 ;;Total ram usage:        2 bytes
  1976 ;; Hardware stack levels used: 1
  1977 ;; This function calls:
  1978 ;;		Nothing
  1979 ;; This function is called by:
  1980 ;;		_lectura_tiempo_posX
  1981 ;;		_lectura_tiempo_posY
  1982 ;; This function uses a non-reentrant model
  1983 ;;
  1984                           
  1985     0325                     _BCD_TO_DEC:	
  1986                           ;psect for function _BCD_TO_DEC
  1987                           
  1988                           
  1989                           ;incstack = 0
  1990                           ; Regs used in _BCD_TO_DEC: [wreg+status,2+status,0]
  1991                           ;BCD_TO_DEC@dato stored from wreg
  1992     0325  00F1               	movwf	BCD_TO_DEC@dato
  1993     0326                     l1406:
  1994                           
  1995                           ;BCD_CONVER.c: 18: unsigned char BCD_TO_DEC(unsigned char dato);BCD_CONVER.c: 19: {;BCD_
      +                          CONVER.c: 20:     decenas = dato;
  1996     0326  0871               	movf	BCD_TO_DEC@dato,w
  1997     0327  1283               	bcf	3,5	;RP0=0, select bank0
  1998     0328  1303               	bcf	3,6	;RP1=0, select bank0
  1999     0329  00AB               	movwf	_decenas
  2000                           
  2001                           ;BCD_CONVER.c: 21:     unidades = dato;
  2002     032A  0871               	movf	BCD_TO_DEC@dato,w
  2003     032B  00AA               	movwf	_unidades
  2004     032C                     l1408:
  2005                           
  2006                           ;BCD_CONVER.c: 23:     decenas = decenas>>4;
  2007     032C  082B               	movf	_decenas,w
  2008     032D  00F0               	movwf	??_BCD_TO_DEC
  2009     032E  3004               	movlw	4
  2010     032F                     u595:
  2011     032F  1003               	clrc
  2012     0330  0CF0               	rrf	??_BCD_TO_DEC,f
  2013     0331  3EFF               	addlw	-1
  2014     0332  1D03               	skipz
  2015     0333  2B2F               	goto	u595
  2016     0334  0870               	movf	??_BCD_TO_DEC,w
  2017     0335  00AB               	movwf	_decenas
  2018     0336                     l1410:
  2019                           
  2020                           ;BCD_CONVER.c: 24:     decenas += 0x30;
  2021     0336  3030               	movlw	48
  2022     0337  07AB               	addwf	_decenas,f
  2023                           
  2024                           ;BCD_CONVER.c: 26:     if (unidades > 9)
  2025     0338  300A               	movlw	10
  2026     0339  022A               	subwf	_unidades,w
  2027     033A  1C03               	skipc
  2028     033B  2B3D               	goto	u601
  2029     033C  2B3E               	goto	u600
  2030     033D                     u601:
  2031     033D  2B4C               	goto	l1416
  2032     033E                     u600:
  2033     033E                     l1412:
  2034                           
  2035                           ;BCD_CONVER.c: 27:     {;BCD_CONVER.c: 28:         unidades = unidades<<4;
  2036     033E  082A               	movf	_unidades,w
  2037     033F  00F0               	movwf	??_BCD_TO_DEC
  2038     0340  3003               	movlw	3
  2039     0341                     u615:
  2040     0341  1003               	clrc
  2041     0342  0DF0               	rlf	??_BCD_TO_DEC,f
  2042     0343  3EFF               	addlw	-1
  2043     0344  1D03               	skipz
  2044     0345  2B41               	goto	u615
  2045     0346  1003               	clrc
  2046     0347  0D70               	rlf	??_BCD_TO_DEC,w
  2047     0348  00AA               	movwf	_unidades
  2048     0349                     l1414:
  2049                           
  2050                           ;BCD_CONVER.c: 29:         unidades /= 0x10;
  2051     0349  0EAA               	swapf	_unidades,f
  2052     034A  300F               	movlw	15
  2053     034B  05AA               	andwf	_unidades,f
  2054     034C                     l1416:
  2055                           
  2056                           ;BCD_CONVER.c: 31:     unidades += 0x30;
  2057     034C  3030               	movlw	48
  2058     034D  07AA               	addwf	_unidades,f
  2059     034E                     l344:
  2060     034E  0008               	return
  2061     034F                     __end_of_BCD_TO_DEC:
  2062                           
  2063                           	psect	text8
  2064     034F                     __ptext8:	
  2065 ;; *************** function _Lcd_inicio *****************
  2066 ;; Defined at:
  2067 ;;		line 4 in file "LCD.c"
  2068 ;; Parameters:    Size  Location     Type
  2069 ;;		None
  2070 ;; Auto vars:     Size  Location     Type
  2071 ;;		None
  2072 ;; Return value:  Size  Location     Type
  2073 ;;                  1    wreg      void 
  2074 ;; Registers used:
  2075 ;;		wreg, status,2, status,0, pclath, cstack
  2076 ;; Tracked objects:
  2077 ;;		On entry : 0/0
  2078 ;;		On exit  : 0/0
  2079 ;;		Unchanged: 0/0
  2080 ;; Data sizes:     COMMON   BANK0   BANK1   BANK3   BANK2
  2081 ;;      Params:         0       0       0       0       0
  2082 ;;      Locals:         0       0       0       0       0
  2083 ;;      Temps:          2       0       0       0       0
  2084 ;;      Totals:         2       0       0       0       0
  2085 ;;Total ram usage:        2 bytes
  2086 ;; Hardware stack levels used: 1
  2087 ;; Hardware stack levels required when called: 1
  2088 ;; This function calls:
  2089 ;;		_Lcd_out_cmd
  2090 ;; This function is called by:
  2091 ;;		_main
  2092 ;; This function uses a non-reentrant model
  2093 ;;
  2094                           
  2095     034F                     _Lcd_inicio:	
  2096                           ;psect for function _Lcd_inicio
  2097                           
  2098     034F                     l1492:	
  2099                           ;incstack = 0
  2100                           ; Regs used in _Lcd_inicio: [wreg+status,2+status,0+pclath+cstack]
  2101                           
  2102                           
  2103                           ;LCD.c: 6:     _delay((unsigned long)((70)*(4000000/4000.0)));
  2104     034F  305B               	movlw	91
  2105     0350  00F3               	movwf	??_Lcd_inicio+1
  2106     0351  30E7               	movlw	231
  2107     0352  00F2               	movwf	??_Lcd_inicio
  2108     0353                     u937:
  2109     0353  0BF2               	decfsz	??_Lcd_inicio,f
  2110     0354  2B53               	goto	u937
  2111     0355  0BF3               	decfsz	??_Lcd_inicio+1,f
  2112     0356  2B53               	goto	u937
  2113     0357  2B58               	nop2
  2114     0358                     l1494:
  2115                           
  2116                           ;LCD.c: 7:     PORTD = 0x38;
  2117     0358  3038               	movlw	56
  2118     0359  1283               	bcf	3,5	;RP0=0, select bank0
  2119     035A  1303               	bcf	3,6	;RP1=0, select bank0
  2120     035B  0088               	movwf	8	;volatile
  2121     035C                     l1496:
  2122                           
  2123                           ;LCD.c: 8:     Lcd_out_cmd();
  2124     035C  120A  118A  22F3  120A  118A  	fcall	_Lcd_out_cmd
  2125     0361                     l1498:
  2126                           
  2127                           ;LCD.c: 9:     _delay((unsigned long)((5)*(4000000/4000.0)));
  2128     0361  3007               	movlw	7
  2129     0362  00F3               	movwf	??_Lcd_inicio+1
  2130     0363  307D               	movlw	125
  2131     0364  00F2               	movwf	??_Lcd_inicio
  2132     0365                     u947:
  2133     0365  0BF2               	decfsz	??_Lcd_inicio,f
  2134     0366  2B65               	goto	u947
  2135     0367  0BF3               	decfsz	??_Lcd_inicio+1,f
  2136     0368  2B65               	goto	u947
  2137     0369                     l1500:
  2138                           
  2139                           ;LCD.c: 10:     PORTD = 0x0C;
  2140     0369  300C               	movlw	12
  2141     036A  1283               	bcf	3,5	;RP0=0, select bank0
  2142     036B  1303               	bcf	3,6	;RP1=0, select bank0
  2143     036C  0088               	movwf	8	;volatile
  2144                           
  2145                           ;LCD.c: 11:     Lcd_out_cmd();
  2146     036D  120A  118A  22F3  120A  118A  	fcall	_Lcd_out_cmd
  2147     0372                     l1502:
  2148                           
  2149                           ;LCD.c: 12:     _delay((unsigned long)((110)*(4000000/4000000.0)));
  2150     0372  3024               	movlw	36
  2151     0373  00F2               	movwf	??_Lcd_inicio
  2152     0374                     u957:
  2153     0374  0BF2               	decfsz	??_Lcd_inicio,f
  2154     0375  2B74               	goto	u957
  2155     0376  0000               	nop
  2156     0377                     l1504:
  2157                           
  2158                           ;LCD.c: 13:     PORTD = 0x01;
  2159     0377  3001               	movlw	1
  2160     0378  1283               	bcf	3,5	;RP0=0, select bank0
  2161     0379  1303               	bcf	3,6	;RP1=0, select bank0
  2162     037A  0088               	movwf	8	;volatile
  2163     037B                     l1506:
  2164                           
  2165                           ;LCD.c: 14:     Lcd_out_cmd();
  2166     037B  120A  118A  22F3  120A  118A  	fcall	_Lcd_out_cmd
  2167                           
  2168                           ;LCD.c: 15:     _delay((unsigned long)((110)*(4000000/4000000.0)));
  2169     0380  3024               	movlw	36
  2170     0381  00F2               	movwf	??_Lcd_inicio
  2171     0382                     u967:
  2172     0382  0BF2               	decfsz	??_Lcd_inicio,f
  2173     0383  2B82               	goto	u967
  2174     0384  0000               	nop
  2175     0385                     l98:
  2176     0385  0008               	return
  2177     0386                     __end_of_Lcd_inicio:
  2178                           
  2179                           	psect	text9
  2180     02B9                     __ptext9:	
  2181 ;; *************** function _I2C_Initialize *****************
  2182 ;; Defined at:
  2183 ;;		line 4 in file "I2C.c"
  2184 ;; Parameters:    Size  Location     Type
  2185 ;;		None
  2186 ;; Auto vars:     Size  Location     Type
  2187 ;;		None
  2188 ;; Return value:  Size  Location     Type
  2189 ;;                  1    wreg      void 
  2190 ;; Registers used:
  2191 ;;		status,2
  2192 ;; Tracked objects:
  2193 ;;		On entry : 0/0
  2194 ;;		On exit  : 0/0
  2195 ;;		Unchanged: 0/0
  2196 ;; Data sizes:     COMMON   BANK0   BANK1   BANK3   BANK2
  2197 ;;      Params:         0       0       0       0       0
  2198 ;;      Locals:         0       0       0       0       0
  2199 ;;      Temps:          0       0       0       0       0
  2200 ;;      Totals:         0       0       0       0       0
  2201 ;;Total ram usage:        0 bytes
  2202 ;; Hardware stack levels used: 1
  2203 ;; This function calls:
  2204 ;;		Nothing
  2205 ;; This function is called by:
  2206 ;;		_main
  2207 ;; This function uses a non-reentrant model
  2208 ;;
  2209                           
  2210     02B9                     _I2C_Initialize:	
  2211                           ;psect for function _I2C_Initialize
  2212                           
  2213     02B9                     l1112:	
  2214                           ;incstack = 0
  2215                           ; Regs used in _I2C_Initialize: [status,2]
  2216                           
  2217                           
  2218                           ;I2C.c: 6:   TRISC3 = 1;
  2219     02B9  1683               	bsf	3,5	;RP0=1, select bank1
  2220     02BA  1303               	bcf	3,6	;RP1=0, select bank1
  2221     02BB  1587               	bsf	7,3	;volatile
  2222                           
  2223                           ;I2C.c: 7:   TRISC4 = 1;
  2224     02BC  1607               	bsf	7,4	;volatile
  2225                           
  2226                           ;I2C.c: 9:   SSPCON = 0x28;
  2227     02BD  3028               	movlw	40
  2228     02BE  1283               	bcf	3,5	;RP0=0, select bank0
  2229     02BF  1303               	bcf	3,6	;RP1=0, select bank0
  2230     02C0  0094               	movwf	20	;volatile
  2231     02C1                     l1114:
  2232                           
  2233                           ;I2C.c: 10:   SSPCON2 = 0x00;
  2234     02C1  1683               	bsf	3,5	;RP0=1, select bank1
  2235     02C2  1303               	bcf	3,6	;RP1=0, select bank1
  2236     02C3  0191               	clrf	17	;volatile
  2237     02C4                     l1116:
  2238                           
  2239                           ;I2C.c: 12:   SSPADD = 0x09;
  2240     02C4  3009               	movlw	9
  2241     02C5  0093               	movwf	19	;volatile
  2242     02C6                     l1118:
  2243                           
  2244                           ;I2C.c: 13:   SSPSTAT = 0x80;
  2245     02C6  3080               	movlw	128
  2246     02C7  0094               	movwf	20	;volatile
  2247     02C8                     l168:
  2248     02C8  0008               	return
  2249     02C9                     __end_of_I2C_Initialize:
  2250                           
  2251                           	psect	text10
  2252     02A9                     __ptext10:	
  2253 ;; *************** function _CFG_DS1307 *****************
  2254 ;; Defined at:
  2255 ;;		line 7 in file "DS1307.c"
  2256 ;; Parameters:    Size  Location     Type
  2257 ;;		None
  2258 ;; Auto vars:     Size  Location     Type
  2259 ;;		None
  2260 ;; Return value:  Size  Location     Type
  2261 ;;                  1    wreg      void 
  2262 ;; Registers used:
  2263 ;;		wreg, fsr0l, fsr0h, status,2, status,0, pclath, cstack
  2264 ;; Tracked objects:
  2265 ;;		On entry : 0/0
  2266 ;;		On exit  : 0/0
  2267 ;;		Unchanged: 0/0
  2268 ;; Data sizes:     COMMON   BANK0   BANK1   BANK3   BANK2
  2269 ;;      Params:         0       0       0       0       0
  2270 ;;      Locals:         0       0       0       0       0
  2271 ;;      Temps:          0       0       0       0       0
  2272 ;;      Totals:         0       0       0       0       0
  2273 ;;Total ram usage:        0 bytes
  2274 ;; Hardware stack levels used: 1
  2275 ;; Hardware stack levels required when called: 5
  2276 ;; This function calls:
  2277 ;;		_I2C_Cmd
  2278 ;;		_I2C_P
  2279 ;; This function is called by:
  2280 ;;		_main
  2281 ;; This function uses a non-reentrant model
  2282 ;;
  2283                           
  2284     02A9                     _CFG_DS1307:	
  2285                           ;psect for function _CFG_DS1307
  2286                           
  2287     02A9                     l1508:	
  2288                           ;incstack = 0
  2289                           ; Regs used in _CFG_DS1307: [wreg-fsr0h+status,2+status,0+pclath+cstack]
  2290                           
  2291                           
  2292                           ;DS1307.c: 9:     I2C_Cmd(0xD0,0x07,0x90);
  2293     02A9  3007               	movlw	7
  2294     02AA  00FC               	movwf	I2C_Cmd@Cfg
  2295     02AB  3090               	movlw	144
  2296     02AC  00FD               	movwf	I2C_Cmd@Cmd
  2297     02AD  30D0               	movlw	208
  2298     02AE  120A  118A  259C  120A  118A  	fcall	_I2C_Cmd
  2299                           
  2300                           ;DS1307.c: 10:     I2C_P();
  2301     02B3  120A  118A  22C9  120A  118A  	fcall	_I2C_P
  2302     02B8                     l283:
  2303     02B8  0008               	return
  2304     02B9                     __end_of_CFG_DS1307:
  2305                           
  2306                           	psect	text11
  2307     069C                     __ptext11:	
  2308 ;; *************** function _AJUSTE_DS1307 *****************
  2309 ;; Defined at:
  2310 ;;		line 55 in file "DS1307.c"
  2311 ;; Parameters:    Size  Location     Type
  2312 ;;		None
  2313 ;; Auto vars:     Size  Location     Type
  2314 ;;		None
  2315 ;; Return value:  Size  Location     Type
  2316 ;;                  1    wreg      void 
  2317 ;; Registers used:
  2318 ;;		wreg, fsr0l, fsr0h, status,2, status,0, pclath, cstack
  2319 ;; Tracked objects:
  2320 ;;		On entry : 0/0
  2321 ;;		On exit  : 0/0
  2322 ;;		Unchanged: 0/0
  2323 ;; Data sizes:     COMMON   BANK0   BANK1   BANK3   BANK2
  2324 ;;      Params:         0       0       0       0       0
  2325 ;;      Locals:         0       0       0       0       0
  2326 ;;      Temps:          0       3       0       0       0
  2327 ;;      Totals:         0       3       0       0       0
  2328 ;;Total ram usage:        3 bytes
  2329 ;; Hardware stack levels used: 1
  2330 ;; Hardware stack levels required when called: 5
  2331 ;; This function calls:
  2332 ;;		_I2C_Cmd
  2333 ;;		_I2C_P
  2334 ;;		_Lcd_Write_Char
  2335 ;;		_Lcd_cmd
  2336 ;;		_Lcd_pos_y
  2337 ;;		_Lcd_print_string
  2338 ;; This function is called by:
  2339 ;;		_main
  2340 ;; This function uses a non-reentrant model
  2341 ;;
  2342                           
  2343     069C                     _AJUSTE_DS1307:	
  2344                           ;psect for function _AJUSTE_DS1307
  2345                           
  2346     069C                     l1516:	
  2347                           ;incstack = 0
  2348                           ; Regs used in _AJUSTE_DS1307: [wreg-fsr0h+status,2+status,0+pclath+cstack]
  2349                           
  2350                           
  2351                           ;DS1307.c: 57:     while (PORTBbits.RB3 == 1)
  2352     069C  2FEB               	goto	l295
  2353     069D                     l1518:
  2354                           
  2355                           ;DS1307.c: 58:     {;DS1307.c: 59:         Lcd_print_string(1,"1.Ajuste Fecha",1,"2.Ajus
      +                          te de Hora");
  2356     069D  3032               	movlw	(low ((STR_7-__stringbase)| (0+32768)))& (0+255)
  2357     069E  00F3               	movwf	Lcd_print_string@String_x
  2358     069F  01F4               	clrf	Lcd_print_string@POSy
  2359     06A0  0AF4               	incf	Lcd_print_string@POSy,f
  2360     06A1  3001               	movlw	(low ((STR_8-__stringbase)| (0+32768)))& (0+255)
  2361     06A2  00F5               	movwf	Lcd_print_string@String_y
  2362     06A3  3001               	movlw	1
  2363     06A4  120A  118A  2459  120A  118A  	fcall	_Lcd_print_string
  2364     06A9                     l1520:
  2365                           
  2366                           ;DS1307.c: 63:         if (PORTBbits.RB2 == 0)
  2367     06A9  1283               	bcf	3,5	;RP0=0, select bank0
  2368     06AA  1303               	bcf	3,6	;RP1=0, select bank0
  2369     06AB  1906               	btfsc	6,2	;volatile
  2370     06AC  2EAE               	goto	u701
  2371     06AD  2EAF               	goto	u700
  2372     06AE                     u701:
  2373     06AE  2FEB               	goto	l295
  2374     06AF                     u700:
  2375     06AF                     l1522:
  2376                           
  2377                           ;DS1307.c: 64:         {;DS1307.c: 65:             _delay((unsigned long)((500)*(4000000
      +                          /4000.0)));
  2378     06AF  3003               	movlw	3
  2379     06B0  1283               	bcf	3,5	;RP0=0, select bank0
  2380     06B1  1303               	bcf	3,6	;RP1=0, select bank0
  2381     06B2  00A4               	movwf	??_AJUSTE_DS1307+2
  2382     06B3  308A               	movlw	138
  2383     06B4  00A3               	movwf	??_AJUSTE_DS1307+1
  2384     06B5  3055               	movlw	85
  2385     06B6  00A2               	movwf	??_AJUSTE_DS1307
  2386     06B7                     u977:
  2387     06B7  0BA2               	decfsz	??_AJUSTE_DS1307,f
  2388     06B8  2EB7               	goto	u977
  2389     06B9  0BA3               	decfsz	??_AJUSTE_DS1307+1,f
  2390     06BA  2EB7               	goto	u977
  2391     06BB  0BA4               	decfsz	??_AJUSTE_DS1307+2,f
  2392     06BC  2EB7               	goto	u977
  2393     06BD                     l1524:
  2394                           
  2395                           ;DS1307.c: 66:             Lcd_cmd(1);
  2396     06BD  3001               	movlw	1
  2397     06BE  120A  118A  2282  120A  118A  	fcall	_Lcd_cmd
  2398                           
  2399                           ;DS1307.c: 67:             while (PORTBbits.RB3 == 1)
  2400     06C3  2FE4               	goto	l298
  2401     06C4                     l1526:
  2402                           
  2403                           ;DS1307.c: 68:             {;DS1307.c: 69:                 Lcd_print_string(1,"1.Dia    
      +                           3.Ano",1,"2.Mes");
  2404     06C4  3012               	movlw	(low ((STR_9-__stringbase)| (0+32768)))& (0+255)
  2405     06C5  00F3               	movwf	Lcd_print_string@String_x
  2406     06C6  01F4               	clrf	Lcd_print_string@POSy
  2407     06C7  0AF4               	incf	Lcd_print_string@POSy,f
  2408     06C8  3089               	movlw	(low ((STR_10-__stringbase)| (0+32768)))& (0+255)
  2409     06C9  00F5               	movwf	Lcd_print_string@String_y
  2410     06CA  3001               	movlw	1
  2411     06CB  120A  118A  2459  120A  118A  	fcall	_Lcd_print_string
  2412     06D0                     l1528:
  2413                           
  2414                           ;DS1307.c: 71:                 if (PORTBbits.RB2 == 0)
  2415     06D0  1283               	bcf	3,5	;RP0=0, select bank0
  2416     06D1  1303               	bcf	3,6	;RP1=0, select bank0
  2417     06D2  1906               	btfsc	6,2	;volatile
  2418     06D3  2ED5               	goto	u711
  2419     06D4  2ED6               	goto	u710
  2420     06D5                     u711:
  2421     06D5  2F9A               	goto	l300
  2422     06D6                     u710:
  2423     06D6                     l1530:
  2424                           
  2425                           ;DS1307.c: 72:                 {;DS1307.c: 73:                     _delay((unsigned long
      +                          )((500)*(4000000/4000.0)));
  2426     06D6  3003               	movlw	3
  2427     06D7  1283               	bcf	3,5	;RP0=0, select bank0
  2428     06D8  1303               	bcf	3,6	;RP1=0, select bank0
  2429     06D9  00A4               	movwf	??_AJUSTE_DS1307+2
  2430     06DA  308A               	movlw	138
  2431     06DB  00A3               	movwf	??_AJUSTE_DS1307+1
  2432     06DC  3055               	movlw	85
  2433     06DD  00A2               	movwf	??_AJUSTE_DS1307
  2434     06DE                     u987:
  2435     06DE  0BA2               	decfsz	??_AJUSTE_DS1307,f
  2436     06DF  2EDE               	goto	u987
  2437     06E0  0BA3               	decfsz	??_AJUSTE_DS1307+1,f
  2438     06E1  2EDE               	goto	u987
  2439     06E2  0BA4               	decfsz	??_AJUSTE_DS1307+2,f
  2440     06E3  2EDE               	goto	u987
  2441     06E4                     l1532:
  2442                           
  2443                           ;DS1307.c: 74:                     Lcd_cmd(1);
  2444     06E4  3001               	movlw	1
  2445     06E5  120A  118A  2282  120A  118A  	fcall	_Lcd_cmd
  2446     06EA                     l1534:
  2447                           
  2448                           ;DS1307.c: 75:                     dato_ajuste_dia_lcd_unidad = 0;
  2449     06EA  1283               	bcf	3,5	;RP0=0, select bank0
  2450     06EB  1303               	bcf	3,6	;RP1=0, select bank0
  2451     06EC  01AD               	clrf	_dato_ajuste_dia_lcd_unidad
  2452     06ED                     l1536:
  2453                           
  2454                           ;DS1307.c: 76:                     dato_ajuste_dia_lcd_decena = 0;
  2455     06ED  01AC               	clrf	_dato_ajuste_dia_lcd_decena
  2456     06EE                     l1538:
  2457                           
  2458                           ;DS1307.c: 77:                     dato_ajuste_dia = 0;
  2459     06EE  01B0               	clrf	_dato_ajuste_dia
  2460     06EF                     l1540:
  2461                           
  2462                           ;DS1307.c: 78:                     dato_ajuste_dia_unidad = 0;
  2463     06EF  01AF               	clrf	_dato_ajuste_dia_unidad
  2464     06F0                     l1542:
  2465                           
  2466                           ;DS1307.c: 79:                     dato_ajuste_dia_decena = 0;
  2467     06F0  01AE               	clrf	_dato_ajuste_dia_decena
  2468     06F1                     l1544:
  2469                           
  2470                           ;DS1307.c: 80:                     dato_ajuste_dia_lcd_unidad += 0x30;
  2471     06F1  3030               	movlw	48
  2472     06F2  07AD               	addwf	_dato_ajuste_dia_lcd_unidad,f
  2473     06F3                     l1546:
  2474                           
  2475                           ;DS1307.c: 81:                     dato_ajuste_dia_lcd_decena += 0x30;
  2476     06F3  3030               	movlw	48
  2477     06F4  07AC               	addwf	_dato_ajuste_dia_lcd_decena,f
  2478                           
  2479                           ;DS1307.c: 82:                     while (PORTBbits.RB3 == 1)
  2480     06F5  2F96               	goto	l301
  2481     06F6                     l1548:
  2482                           
  2483                           ;DS1307.c: 83:                     {;DS1307.c: 84:                         Lcd_print_str
      +                          ing(2,"Ajuste de dia",1,"");
  2484     06F6  3041               	movlw	(low ((STR_11-__stringbase)| (0+32768)))& (0+255)
  2485     06F7  00F3               	movwf	Lcd_print_string@String_x
  2486     06F8  01F4               	clrf	Lcd_print_string@POSy
  2487     06F9  0AF4               	incf	Lcd_print_string@POSy,f
  2488     06FA  3031               	movlw	(low (((STR_5+15)-__stringbase)| (0+32768)))& (0+255)
  2489     06FB  00F5               	movwf	Lcd_print_string@String_y
  2490     06FC  3002               	movlw	2
  2491     06FD  120A  118A  2459  120A  118A  	fcall	_Lcd_print_string
  2492     0702                     l1550:
  2493                           
  2494                           ;DS1307.c: 85:                         Lcd_pos_y(9);
  2495     0702  3009               	movlw	9
  2496     0703  120A  118A  228D  120A  118A  	fcall	_Lcd_pos_y
  2497     0708                     l1552:
  2498                           
  2499                           ;DS1307.c: 86:                         Lcd_Write_Char(dato_ajuste_dia_lcd_unidad);
  2500     0708  1283               	bcf	3,5	;RP0=0, select bank0
  2501     0709  1303               	bcf	3,6	;RP1=0, select bank0
  2502     070A  082D               	movf	_dato_ajuste_dia_lcd_unidad,w
  2503     070B  120A  118A  2277  120A  118A  	fcall	_Lcd_Write_Char
  2504     0710                     l1554:
  2505                           
  2506                           ;DS1307.c: 87:                         Lcd_pos_y(8);
  2507     0710  3008               	movlw	8
  2508     0711  120A  118A  228D  120A  118A  	fcall	_Lcd_pos_y
  2509     0716                     l1556:
  2510                           
  2511                           ;DS1307.c: 88:                         Lcd_Write_Char(dato_ajuste_dia_lcd_decena);
  2512     0716  1283               	bcf	3,5	;RP0=0, select bank0
  2513     0717  1303               	bcf	3,6	;RP1=0, select bank0
  2514     0718  082C               	movf	_dato_ajuste_dia_lcd_decena,w
  2515     0719  120A  118A  2277  120A  118A  	fcall	_Lcd_Write_Char
  2516     071E                     l1558:
  2517                           
  2518                           ;DS1307.c: 89:                         if (PORTBbits.RB2 == 0)
  2519     071E  1283               	bcf	3,5	;RP0=0, select bank0
  2520     071F  1303               	bcf	3,6	;RP1=0, select bank0
  2521     0720  1906               	btfsc	6,2	;volatile
  2522     0721  2F23               	goto	u721
  2523     0722  2F24               	goto	u720
  2524     0723                     u721:
  2525     0723  2F52               	goto	l1580
  2526     0724                     u720:
  2527     0724                     l1560:
  2528                           
  2529                           ;DS1307.c: 90:                         {;DS1307.c: 91:                             _dela
      +                          y((unsigned long)((1000)*(4000000/4000.0)));
  2530     0724  3006               	movlw	6
  2531     0725  1283               	bcf	3,5	;RP0=0, select bank0
  2532     0726  1303               	bcf	3,6	;RP1=0, select bank0
  2533     0727  00A4               	movwf	??_AJUSTE_DS1307+2
  2534     0728  3013               	movlw	19
  2535     0729  00A3               	movwf	??_AJUSTE_DS1307+1
  2536     072A  30AD               	movlw	173
  2537     072B  00A2               	movwf	??_AJUSTE_DS1307
  2538     072C                     u997:
  2539     072C  0BA2               	decfsz	??_AJUSTE_DS1307,f
  2540     072D  2F2C               	goto	u997
  2541     072E  0BA3               	decfsz	??_AJUSTE_DS1307+1,f
  2542     072F  2F2C               	goto	u997
  2543     0730  0BA4               	decfsz	??_AJUSTE_DS1307+2,f
  2544     0731  2F2C               	goto	u997
  2545     0732                     l1562:
  2546                           
  2547                           ;DS1307.c: 92:                             dato_ajuste_dia += 1;
  2548     0732  3001               	movlw	1
  2549     0733  1283               	bcf	3,5	;RP0=0, select bank0
  2550     0734  1303               	bcf	3,6	;RP1=0, select bank0
  2551     0735  07B0               	addwf	_dato_ajuste_dia,f
  2552     0736                     l1564:
  2553                           
  2554                           ;DS1307.c: 93:                             if (dato_ajuste_dia >9)
  2555     0736  300A               	movlw	10
  2556     0737  0230               	subwf	_dato_ajuste_dia,w
  2557     0738  1C03               	skipc
  2558     0739  2F3B               	goto	u731
  2559     073A  2F3C               	goto	u730
  2560     073B                     u731:
  2561     073B  2F4A               	goto	l1572
  2562     073C                     u730:
  2563     073C                     l1566:
  2564                           
  2565                           ;DS1307.c: 94:                             {;DS1307.c: 95:                              
      +                             dato_ajuste_dia_unidad = 0;
  2566     073C  01AF               	clrf	_dato_ajuste_dia_unidad
  2567     073D                     l1568:
  2568                           
  2569                           ;DS1307.c: 96:                                 dato_ajuste_dia_decena = 1;
  2570     073D  3001               	movlw	1
  2571     073E  00AE               	movwf	_dato_ajuste_dia_decena
  2572     073F                     l1570:
  2573                           
  2574                           ;DS1307.c: 97:                                 dato_ajuste_dia_decena = dato_ajuste_dia_
      +                          decena<<4;
  2575     073F  082E               	movf	_dato_ajuste_dia_decena,w
  2576     0740  00A2               	movwf	??_AJUSTE_DS1307
  2577     0741  3003               	movlw	3
  2578     0742                     u745:
  2579     0742  1003               	clrc
  2580     0743  0DA2               	rlf	??_AJUSTE_DS1307,f
  2581     0744  3EFF               	addlw	-1
  2582     0745  1D03               	skipz
  2583     0746  2F42               	goto	u745
  2584     0747  1003               	clrc
  2585     0748  0D22               	rlf	??_AJUSTE_DS1307,w
  2586     0749  00AE               	movwf	_dato_ajuste_dia_decena
  2587     074A                     l1572:
  2588                           
  2589                           ;DS1307.c: 100:                             dato_ajuste_dia_lcd_unidad = dato_ajuste_dia
      +                          ;
  2590     074A  0830               	movf	_dato_ajuste_dia,w
  2591     074B  00AD               	movwf	_dato_ajuste_dia_lcd_unidad
  2592     074C                     l1574:
  2593                           
  2594                           ;DS1307.c: 101:                             dato_ajuste_dia_lcd_unidad += 0x30;
  2595     074C  3030               	movlw	48
  2596     074D  07AD               	addwf	_dato_ajuste_dia_lcd_unidad,f
  2597     074E                     l1576:
  2598                           
  2599                           ;DS1307.c: 102:                             dato_ajuste_dia_lcd_decena = dato_ajuste_dia
      +                          ;
  2600     074E  0830               	movf	_dato_ajuste_dia,w
  2601     074F  00AC               	movwf	_dato_ajuste_dia_lcd_decena
  2602     0750                     l1578:
  2603                           
  2604                           ;DS1307.c: 103:                             dato_ajuste_dia_lcd_decena += 0x30;
  2605     0750  3030               	movlw	48
  2606     0751  07AC               	addwf	_dato_ajuste_dia_lcd_decena,f
  2607     0752                     l1580:
  2608                           
  2609                           ;DS1307.c: 105:                         if (PORTBbits.RB1 == 0)
  2610     0752  1886               	btfsc	6,1	;volatile
  2611     0753  2F55               	goto	u751
  2612     0754  2F56               	goto	u750
  2613     0755                     u751:
  2614     0755  2F6C               	goto	l1588
  2615     0756                     u750:
  2616     0756                     l1582:
  2617                           
  2618                           ;DS1307.c: 106:                         {;DS1307.c: 107:                             _de
      +                          lay((unsigned long)((1000)*(4000000/4000.0)));
  2619     0756  3006               	movlw	6
  2620     0757  1283               	bcf	3,5	;RP0=0, select bank0
  2621     0758  1303               	bcf	3,6	;RP1=0, select bank0
  2622     0759  00A4               	movwf	??_AJUSTE_DS1307+2
  2623     075A  3013               	movlw	19
  2624     075B  00A3               	movwf	??_AJUSTE_DS1307+1
  2625     075C  30AD               	movlw	173
  2626     075D  00A2               	movwf	??_AJUSTE_DS1307
  2627     075E                     u1007:
  2628     075E  0BA2               	decfsz	??_AJUSTE_DS1307,f
  2629     075F  2F5E               	goto	u1007
  2630     0760  0BA3               	decfsz	??_AJUSTE_DS1307+1,f
  2631     0761  2F5E               	goto	u1007
  2632     0762  0BA4               	decfsz	??_AJUSTE_DS1307+2,f
  2633     0763  2F5E               	goto	u1007
  2634     0764                     l1584:
  2635                           
  2636                           ;DS1307.c: 108:                             dato_ajuste_dia -= 1;
  2637     0764  3001               	movlw	1
  2638     0765  1283               	bcf	3,5	;RP0=0, select bank0
  2639     0766  1303               	bcf	3,6	;RP1=0, select bank0
  2640     0767  02B0               	subwf	_dato_ajuste_dia,f
  2641     0768                     l1586:
  2642                           
  2643                           ;DS1307.c: 109:                             dato_ajuste_dia_lcd_unidad = dato_ajuste_dia
      +                          ;
  2644     0768  0830               	movf	_dato_ajuste_dia,w
  2645     0769  00AD               	movwf	_dato_ajuste_dia_lcd_unidad
  2646                           
  2647                           ;DS1307.c: 110:                             dato_ajuste_dia_lcd_unidad += 0x30;
  2648     076A  3030               	movlw	48
  2649     076B  07AD               	addwf	_dato_ajuste_dia_lcd_unidad,f
  2650     076C                     l1588:
  2651                           
  2652                           ;DS1307.c: 112:                         if (PORTBbits.RB0 == 0)
  2653     076C  1806               	btfsc	6,0	;volatile
  2654     076D  2F6F               	goto	u761
  2655     076E  2F70               	goto	u760
  2656     076F                     u761:
  2657     076F  2F96               	goto	l301
  2658     0770                     u760:
  2659     0770                     l1590:
  2660                           
  2661                           ;DS1307.c: 113:                         {;DS1307.c: 114:                             _de
      +                          lay((unsigned long)((1000)*(4000000/4000.0)));
  2662     0770  3006               	movlw	6
  2663     0771  1283               	bcf	3,5	;RP0=0, select bank0
  2664     0772  1303               	bcf	3,6	;RP1=0, select bank0
  2665     0773  00A4               	movwf	??_AJUSTE_DS1307+2
  2666     0774  3013               	movlw	19
  2667     0775  00A3               	movwf	??_AJUSTE_DS1307+1
  2668     0776  30AD               	movlw	173
  2669     0777  00A2               	movwf	??_AJUSTE_DS1307
  2670     0778                     u1017:
  2671     0778  0BA2               	decfsz	??_AJUSTE_DS1307,f
  2672     0779  2F78               	goto	u1017
  2673     077A  0BA3               	decfsz	??_AJUSTE_DS1307+1,f
  2674     077B  2F78               	goto	u1017
  2675     077C  0BA4               	decfsz	??_AJUSTE_DS1307+2,f
  2676     077D  2F78               	goto	u1017
  2677     077E                     l1592:
  2678                           
  2679                           ;DS1307.c: 115:                             I2C_Cmd(0xD0,0x04,dato_ajuste_dia);
  2680     077E  3004               	movlw	4
  2681     077F  00FC               	movwf	I2C_Cmd@Cfg
  2682     0780  1283               	bcf	3,5	;RP0=0, select bank0
  2683     0781  1303               	bcf	3,6	;RP1=0, select bank0
  2684     0782  0830               	movf	_dato_ajuste_dia,w
  2685     0783  00FD               	movwf	I2C_Cmd@Cmd
  2686     0784  30D0               	movlw	208
  2687     0785  120A  118A  259C  120A  118A  	fcall	_I2C_Cmd
  2688     078A                     l1594:
  2689                           
  2690                           ;DS1307.c: 116:                             I2C_P();
  2691     078A  120A  118A  22C9  120A  118A  	fcall	_I2C_P
  2692     078F                     l1596:
  2693                           
  2694                           ;DS1307.c: 117:                             Lcd_cmd(1);
  2695     078F  3001               	movlw	1
  2696     0790  120A  118A  2282  120A  118A  	fcall	_Lcd_cmd
  2697                           
  2698                           ;DS1307.c: 118:                             break;
  2699     0795  2F9A               	goto	l300
  2700     0796                     l301:	
  2701                           ;DS1307.c: 120:                     }
  2702                           
  2703                           
  2704                           ;DS1307.c: 82:                     while (PORTBbits.RB3 == 1)
  2705     0796  1986               	btfsc	6,3	;volatile
  2706     0797  2F99               	goto	u771
  2707     0798  2F9A               	goto	u770
  2708     0799                     u771:
  2709     0799  2EF6               	goto	l1548
  2710     079A                     u770:
  2711     079A                     l300:	
  2712                           ;DS1307.c: 121:                 }
  2713                           
  2714                           
  2715                           ;DS1307.c: 123:                 if (PORTBbits.RB1 == 0)
  2716     079A  1283               	bcf	3,5	;RP0=0, select bank0
  2717     079B  1303               	bcf	3,6	;RP1=0, select bank0
  2718     079C  1886               	btfsc	6,1	;volatile
  2719     079D  2F9F               	goto	u781
  2720     079E  2FA0               	goto	u780
  2721     079F                     u781:
  2722     079F  2FC0               	goto	l308
  2723     07A0                     u780:
  2724     07A0                     l1598:
  2725                           
  2726                           ;DS1307.c: 124:                 {;DS1307.c: 125:                     Lcd_cmd(1);
  2727     07A0  3001               	movlw	1
  2728     07A1  120A  118A  2282  120A  118A  	fcall	_Lcd_cmd
  2729                           
  2730                           ;DS1307.c: 126:                     while (PORTBbits.RB3 == 1)
  2731     07A6  2FBA               	goto	l309
  2732     07A7                     l1600:
  2733                           
  2734                           ;DS1307.c: 127:                     {;DS1307.c: 128:                         Lcd_print_s
      +                          tring(2,"Ajuste de Mes",1,"");
  2735     07A7  305D               	movlw	(low ((STR_13-__stringbase)| (0+32768)))& (0+255)
  2736     07A8  00F3               	movwf	Lcd_print_string@String_x
  2737     07A9  01F4               	clrf	Lcd_print_string@POSy
  2738     07AA  0AF4               	incf	Lcd_print_string@POSy,f
  2739     07AB  3031               	movlw	(low (((STR_5+15)-__stringbase)| (0+32768)))& (0+255)
  2740     07AC  00F5               	movwf	Lcd_print_string@String_y
  2741     07AD  3002               	movlw	2
  2742     07AE  120A  118A  2459  120A  118A  	fcall	_Lcd_print_string
  2743     07B3                     l1602:
  2744                           
  2745                           ;DS1307.c: 129:                         if (PORTBbits.RB3 == 0)
  2746     07B3  1283               	bcf	3,5	;RP0=0, select bank0
  2747     07B4  1303               	bcf	3,6	;RP1=0, select bank0
  2748     07B5  1986               	btfsc	6,3	;volatile
  2749     07B6  2FB8               	goto	u791
  2750     07B7  2FB9               	goto	u790
  2751     07B8                     u791:
  2752     07B8  2FBA               	goto	l309
  2753     07B9                     u790:
  2754     07B9  2FC0               	goto	l308
  2755     07BA                     l309:	
  2756                           ;DS1307.c: 133:                     }
  2757                           
  2758                           
  2759                           ;DS1307.c: 126:                     while (PORTBbits.RB3 == 1)
  2760     07BA  1283               	bcf	3,5	;RP0=0, select bank0
  2761     07BB  1303               	bcf	3,6	;RP1=0, select bank0
  2762     07BC  1986               	btfsc	6,3	;volatile
  2763     07BD  2FBF               	goto	u801
  2764     07BE  2FC0               	goto	u800
  2765     07BF                     u801:
  2766     07BF  2FA7               	goto	l1600
  2767     07C0                     u800:
  2768     07C0                     l308:	
  2769                           ;DS1307.c: 134:                 }
  2770                           
  2771                           
  2772                           ;DS1307.c: 136:                 if (PORTBbits.RB4 == 0)
  2773     07C0  1A06               	btfsc	6,4	;volatile
  2774     07C1  2FC3               	goto	u811
  2775     07C2  2FC4               	goto	u810
  2776     07C3                     u811:
  2777     07C3  2FE4               	goto	l298
  2778     07C4                     u810:
  2779     07C4                     l1606:
  2780                           
  2781                           ;DS1307.c: 137:                 {;DS1307.c: 138:                     Lcd_cmd(1);
  2782     07C4  3001               	movlw	1
  2783     07C5  120A  118A  2282  120A  118A  	fcall	_Lcd_cmd
  2784                           
  2785                           ;DS1307.c: 139:                     while (PORTBbits.RB3 == 1)
  2786     07CA  2FDE               	goto	l314
  2787     07CB                     l1608:
  2788                           
  2789                           ;DS1307.c: 140:                     {;DS1307.c: 141:                         Lcd_print_s
      +                          tring(2,"Ajuste de Ano",1,"");
  2790     07CB  304F               	movlw	(low ((STR_15-__stringbase)| (0+32768)))& (0+255)
  2791     07CC  00F3               	movwf	Lcd_print_string@String_x
  2792     07CD  01F4               	clrf	Lcd_print_string@POSy
  2793     07CE  0AF4               	incf	Lcd_print_string@POSy,f
  2794     07CF  3031               	movlw	(low (((STR_5+15)-__stringbase)| (0+32768)))& (0+255)
  2795     07D0  00F5               	movwf	Lcd_print_string@String_y
  2796     07D1  3002               	movlw	2
  2797     07D2  120A  118A  2459  120A  118A  	fcall	_Lcd_print_string
  2798     07D7                     l1610:
  2799                           
  2800                           ;DS1307.c: 142:                         if (PORTBbits.RB3 == 0)
  2801     07D7  1283               	bcf	3,5	;RP0=0, select bank0
  2802     07D8  1303               	bcf	3,6	;RP1=0, select bank0
  2803     07D9  1986               	btfsc	6,3	;volatile
  2804     07DA  2FDC               	goto	u821
  2805     07DB  2FDD               	goto	u820
  2806     07DC                     u821:
  2807     07DC  2FDE               	goto	l314
  2808     07DD                     u820:
  2809     07DD  2FE4               	goto	l298
  2810     07DE                     l314:	
  2811                           ;DS1307.c: 146:                     }
  2812                           
  2813                           
  2814                           ;DS1307.c: 139:                     while (PORTBbits.RB3 == 1)
  2815     07DE  1283               	bcf	3,5	;RP0=0, select bank0
  2816     07DF  1303               	bcf	3,6	;RP1=0, select bank0
  2817     07E0  1986               	btfsc	6,3	;volatile
  2818     07E1  2FE3               	goto	u831
  2819     07E2  2FE4               	goto	u830
  2820     07E3                     u831:
  2821     07E3  2FCB               	goto	l1608
  2822     07E4                     u830:
  2823     07E4                     l298:	
  2824                           ;DS1307.c: 148:             }
  2825                           
  2826                           
  2827                           ;DS1307.c: 67:             while (PORTBbits.RB3 == 1)
  2828     07E4  1283               	bcf	3,5	;RP0=0, select bank0
  2829     07E5  1303               	bcf	3,6	;RP1=0, select bank0
  2830     07E6  1986               	btfsc	6,3	;volatile
  2831     07E7  2FE9               	goto	u841
  2832     07E8  2FEA               	goto	u840
  2833     07E9                     u841:
  2834     07E9  2EC4               	goto	l1526
  2835     07EA                     u840:
  2836     07EA  2E9C               	goto	l1516
  2837     07EB                     l295:	
  2838                           ;DS1307.c: 150:     }
  2839                           
  2840                           
  2841                           ;DS1307.c: 57:     while (PORTBbits.RB3 == 1)
  2842     07EB  1283               	bcf	3,5	;RP0=0, select bank0
  2843     07EC  1303               	bcf	3,6	;RP1=0, select bank0
  2844     07ED  1986               	btfsc	6,3	;volatile
  2845     07EE  2FF0               	goto	u851
  2846     07EF  2FF1               	goto	u850
  2847     07F0                     u851:
  2848     07F0  2E9D               	goto	l1518
  2849     07F1                     u850:
  2850     07F1                     l320:
  2851     07F1  0008               	return
  2852     07F2                     __end_of_AJUSTE_DS1307:
  2853                           
  2854                           	psect	text12
  2855     028D                     __ptext12:	
  2856 ;; *************** function _Lcd_pos_y *****************
  2857 ;; Defined at:
  2858 ;;		line 83 in file "LCD.c"
  2859 ;; Parameters:    Size  Location     Type
  2860 ;;  POSy            1    wreg     unsigned char 
  2861 ;; Auto vars:     Size  Location     Type
  2862 ;;  POSy            1    2[COMMON] unsigned char 
  2863 ;;  a               1    3[COMMON] unsigned char 
  2864 ;; Return value:  Size  Location     Type
  2865 ;;                  1    wreg      void 
  2866 ;; Registers used:
  2867 ;;		wreg, status,2, status,0, pclath, cstack
  2868 ;; Tracked objects:
  2869 ;;		On entry : 0/0
  2870 ;;		On exit  : 0/0
  2871 ;;		Unchanged: 0/0
  2872 ;; Data sizes:     COMMON   BANK0   BANK1   BANK3   BANK2
  2873 ;;      Params:         0       0       0       0       0
  2874 ;;      Locals:         2       0       0       0       0
  2875 ;;      Temps:          0       0       0       0       0
  2876 ;;      Totals:         2       0       0       0       0
  2877 ;;Total ram usage:        2 bytes
  2878 ;; Hardware stack levels used: 1
  2879 ;; Hardware stack levels required when called: 1
  2880 ;; This function calls:
  2881 ;;		_Lcd_out_cmd
  2882 ;; This function is called by:
  2883 ;;		_lectura_tiempo_posY
  2884 ;;		_READ_DS1307
  2885 ;;		_AJUSTE_DS1307
  2886 ;; This function uses a non-reentrant model
  2887 ;;
  2888                           
  2889     028D                     _Lcd_pos_y:	
  2890                           ;psect for function _Lcd_pos_y
  2891                           
  2892                           
  2893                           ;incstack = 0
  2894                           ; Regs used in _Lcd_pos_y: [wreg+status,2+status,0+pclath+cstack]
  2895                           ;Lcd_pos_y@POSy stored from wreg
  2896     028D  00F2               	movwf	Lcd_pos_y@POSy
  2897     028E                     l1342:
  2898                           
  2899                           ;LCD.c: 83: void Lcd_pos_y(unsigned char POSy);LCD.c: 84: {;LCD.c: 85:     unsigned char
      +                           a;;LCD.c: 86:     a = 0xC0 + POSy - 1;
  2900     028E  0872               	movf	Lcd_pos_y@POSy,w
  2901     028F  3EBF               	addlw	191
  2902     0290  00F3               	movwf	Lcd_pos_y@a
  2903     0291                     l1344:
  2904                           
  2905                           ;LCD.c: 87:     PORTD = a;
  2906     0291  0873               	movf	Lcd_pos_y@a,w
  2907     0292  1283               	bcf	3,5	;RP0=0, select bank0
  2908     0293  1303               	bcf	3,6	;RP1=0, select bank0
  2909     0294  0088               	movwf	8	;volatile
  2910     0295                     l1346:
  2911                           
  2912                           ;LCD.c: 88:     Lcd_out_cmd();
  2913     0295  120A  118A  22F3  120A  118A  	fcall	_Lcd_out_cmd
  2914     029A                     l131:
  2915     029A  0008               	return
  2916     029B                     __end_of_Lcd_pos_y:
  2917                           
  2918                           	psect	text13
  2919     0282                     __ptext13:	
  2920 ;; *************** function _Lcd_cmd *****************
  2921 ;; Defined at:
  2922 ;;		line 38 in file "LCD.c"
  2923 ;; Parameters:    Size  Location     Type
  2924 ;;  comando         1    wreg     unsigned char 
  2925 ;; Auto vars:     Size  Location     Type
  2926 ;;  comando         1    2[COMMON] unsigned char 
  2927 ;; Return value:  Size  Location     Type
  2928 ;;                  1    wreg      void 
  2929 ;; Registers used:
  2930 ;;		wreg, status,2, status,0, pclath, cstack
  2931 ;; Tracked objects:
  2932 ;;		On entry : 0/0
  2933 ;;		On exit  : 0/0
  2934 ;;		Unchanged: 0/0
  2935 ;; Data sizes:     COMMON   BANK0   BANK1   BANK3   BANK2
  2936 ;;      Params:         0       0       0       0       0
  2937 ;;      Locals:         1       0       0       0       0
  2938 ;;      Temps:          0       0       0       0       0
  2939 ;;      Totals:         1       0       0       0       0
  2940 ;;Total ram usage:        1 bytes
  2941 ;; Hardware stack levels used: 1
  2942 ;; Hardware stack levels required when called: 1
  2943 ;; This function calls:
  2944 ;;		_Lcd_out_cmd
  2945 ;; This function is called by:
  2946 ;;		_main
  2947 ;;		_AJUSTE_DS1307
  2948 ;; This function uses a non-reentrant model
  2949 ;;
  2950                           
  2951     0282                     _Lcd_cmd:	
  2952                           ;psect for function _Lcd_cmd
  2953                           
  2954                           
  2955                           ;incstack = 0
  2956                           ; Regs used in _Lcd_cmd: [wreg+status,2+status,0+pclath+cstack]
  2957                           ;Lcd_cmd@comando stored from wreg
  2958     0282  00F2               	movwf	Lcd_cmd@comando
  2959     0283                     l1420:
  2960                           
  2961                           ;LCD.c: 38: void Lcd_cmd(unsigned char comando);LCD.c: 39: {;LCD.c: 40:     PORTD = coma
      +                          ndo;
  2962     0283  0872               	movf	Lcd_cmd@comando,w
  2963     0284  1283               	bcf	3,5	;RP0=0, select bank0
  2964     0285  1303               	bcf	3,6	;RP1=0, select bank0
  2965     0286  0088               	movwf	8	;volatile
  2966     0287                     l1422:
  2967                           
  2968                           ;LCD.c: 41:     Lcd_out_cmd();
  2969     0287  120A  118A  22F3  120A  118A  	fcall	_Lcd_out_cmd
  2970     028C                     l110:
  2971     028C  0008               	return
  2972     028D                     __end_of_Lcd_cmd:
  2973                           
  2974                           	psect	text14
  2975     02C9                     __ptext14:	
  2976 ;; *************** function _I2C_P *****************
  2977 ;; Defined at:
  2978 ;;		line 135 in file "I2C.c"
  2979 ;; Parameters:    Size  Location     Type
  2980 ;;		None
  2981 ;; Auto vars:     Size  Location     Type
  2982 ;;		None
  2983 ;; Return value:  Size  Location     Type
  2984 ;;                  1    wreg      void 
  2985 ;; Registers used:
  2986 ;;		wreg, fsr0l, fsr0h, status,2, status,0, pclath, cstack
  2987 ;; Tracked objects:
  2988 ;;		On entry : 0/0
  2989 ;;		On exit  : 0/0
  2990 ;;		Unchanged: 0/0
  2991 ;; Data sizes:     COMMON   BANK0   BANK1   BANK3   BANK2
  2992 ;;      Params:         0       0       0       0       0
  2993 ;;      Locals:         0       0       0       0       0
  2994 ;;      Temps:          0       0       0       0       0
  2995 ;;      Totals:         0       0       0       0       0
  2996 ;;Total ram usage:        0 bytes
  2997 ;; Hardware stack levels used: 1
  2998 ;; Hardware stack levels required when called: 4
  2999 ;; This function calls:
  3000 ;;		_I2C_Check
  3001 ;; This function is called by:
  3002 ;;		_main
  3003 ;;		_CFG_DS1307
  3004 ;;		_AJUSTE_DS1307
  3005 ;; This function uses a non-reentrant model
  3006 ;;
  3007                           
  3008     02C9                     _I2C_P:	
  3009                           ;psect for function _I2C_P
  3010                           
  3011     02C9                     l1454:	
  3012                           ;incstack = 0
  3013                           ; Regs used in _I2C_P: [wreg-fsr0h+status,2+status,0+pclath+cstack]
  3014                           
  3015                           
  3016                           ;I2C.c: 137:     I2C_Check();
  3017     02C9  120A  118A  230B  120A  118A  	fcall	_I2C_Check
  3018     02CE                     l1456:
  3019                           
  3020                           ;I2C.c: 138:     SSPCON2bits.PEN = 1;
  3021     02CE  1683               	bsf	3,5	;RP0=1, select bank1
  3022     02CF  1303               	bcf	3,6	;RP1=0, select bank1
  3023     02D0  1511               	bsf	17,2	;volatile
  3024     02D1                     l1458:
  3025                           
  3026                           ;I2C.c: 139:     _delay((unsigned long)((5)*(4000000/4000000.0)));
  3027     02D1  2AD2               	nop2	;2 cycle nop
  3028     02D2  2AD3               	nop2	;2 cycle nop
  3029     02D3  0000               	nop
  3030     02D4                     l237:	
  3031                           ;I2C.c: 141:     {;I2C.c: 142:     }
  3032                           
  3033                           
  3034                           ;I2C.c: 140:     while (SSPSTATbits.P == 0)
  3035     02D4  1683               	bsf	3,5	;RP0=1, select bank1
  3036     02D5  1303               	bcf	3,6	;RP1=0, select bank1
  3037     02D6  1E14               	btfss	20,4	;volatile
  3038     02D7  2AD9               	goto	u691
  3039     02D8  2ADA               	goto	u690
  3040     02D9                     u691:
  3041     02D9  2AD4               	goto	l237
  3042     02DA                     u690:
  3043     02DA                     l240:
  3044     02DA  0008               	return
  3045     02DB                     __end_of_I2C_P:
  3046                           
  3047                           	psect	text15
  3048     059C                     __ptext15:	
  3049 ;; *************** function _I2C_Cmd *****************
  3050 ;; Defined at:
  3051 ;;		line 24 in file "I2C.c"
  3052 ;; Parameters:    Size  Location     Type
  3053 ;;  Dir             1    wreg     unsigned char 
  3054 ;;  Cfg             1   12[COMMON] unsigned char 
  3055 ;;  Cmd             1   13[COMMON] unsigned char 
  3056 ;; Auto vars:     Size  Location     Type
  3057 ;;  Dir             1    1[BANK0 ] unsigned char 
  3058 ;; Return value:  Size  Location     Type
  3059 ;;                  1    wreg      void 
  3060 ;; Registers used:
  3061 ;;		wreg, fsr0l, fsr0h, status,2, status,0, pclath, cstack
  3062 ;; Tracked objects:
  3063 ;;		On entry : 0/0
  3064 ;;		On exit  : 0/0
  3065 ;;		Unchanged: 0/0
  3066 ;; Data sizes:     COMMON   BANK0   BANK1   BANK3   BANK2
  3067 ;;      Params:         2       0       0       0       0
  3068 ;;      Locals:         0       1       0       0       0
  3069 ;;      Temps:          0       1       0       0       0
  3070 ;;      Totals:         2       2       0       0       0
  3071 ;;Total ram usage:        4 bytes
  3072 ;; Hardware stack levels used: 1
  3073 ;; Hardware stack levels required when called: 4
  3074 ;; This function calls:
  3075 ;;		_I2C_Check
  3076 ;;		_Lcd_print_string
  3077 ;; This function is called by:
  3078 ;;		_main
  3079 ;;		_CFG_DS1307
  3080 ;;		_AJUSTE_DS1307
  3081 ;; This function uses a non-reentrant model
  3082 ;;
  3083                           
  3084     059C                     _I2C_Cmd:	
  3085                           ;psect for function _I2C_Cmd
  3086                           
  3087                           
  3088                           ;incstack = 0
  3089                           ; Regs used in _I2C_Cmd: [wreg-fsr0h+status,2+status,0+pclath+cstack]
  3090                           ;I2C_Cmd@Dir stored from wreg
  3091     059C  1283               	bcf	3,5	;RP0=0, select bank0
  3092     059D  1303               	bcf	3,6	;RP1=0, select bank0
  3093     059E  00A1               	movwf	I2C_Cmd@Dir
  3094     059F                     l1424:
  3095                           
  3096                           ;I2C.c: 24: void I2C_Cmd(unsigned char Dir,unsigned char Cfg,unsigned char Cmd);I2C.c: 2
      +                          5: {;I2C.c: 26:     I2C_Check();
  3097     059F  120A  118A  230B  120A  118A  	fcall	_I2C_Check
  3098     05A4                     l1426:
  3099                           
  3100                           ;I2C.c: 27:     SSPCON2bits.SEN = 1;
  3101     05A4  1683               	bsf	3,5	;RP0=1, select bank1
  3102     05A5  1303               	bcf	3,6	;RP1=0, select bank1
  3103     05A6  1411               	bsf	17,0	;volatile
  3104     05A7                     l1428:
  3105                           
  3106                           ;I2C.c: 28:     _delay((unsigned long)((5)*(4000000/4000000.0)));
  3107     05A7  2DA8               	nop2	;2 cycle nop
  3108     05A8  2DA9               	nop2	;2 cycle nop
  3109     05A9  0000               	nop
  3110     05AA                     l177:	
  3111                           ;I2C.c: 30:     {;I2C.c: 31:     }
  3112                           
  3113                           
  3114                           ;I2C.c: 29:     while (SSPCON2bits.SEN == 1)
  3115     05AA  1683               	bsf	3,5	;RP0=1, select bank1
  3116     05AB  1303               	bcf	3,6	;RP1=0, select bank1
  3117     05AC  1811               	btfsc	17,0	;volatile
  3118     05AD  2DAF               	goto	u621
  3119     05AE  2DB0               	goto	u620
  3120     05AF                     u621:
  3121     05AF  2DAA               	goto	l177
  3122     05B0                     u620:
  3123     05B0                     l1430:
  3124                           
  3125                           ;I2C.c: 32:     I2C_Check();
  3126     05B0  120A  118A  230B  120A  118A  	fcall	_I2C_Check
  3127     05B5                     l1432:
  3128                           
  3129                           ;I2C.c: 33:     SSPBUF = Dir;
  3130     05B5  1283               	bcf	3,5	;RP0=0, select bank0
  3131     05B6  1303               	bcf	3,6	;RP1=0, select bank0
  3132     05B7  0821               	movf	I2C_Cmd@Dir,w
  3133     05B8  0093               	movwf	19	;volatile
  3134     05B9                     l1434:
  3135                           
  3136                           ;I2C.c: 34:     _delay((unsigned long)((500)*(4000000/4000000.0)));
  3137     05B9  30A5               	movlw	165
  3138     05BA  1283               	bcf	3,5	;RP0=0, select bank0
  3139     05BB  1303               	bcf	3,6	;RP1=0, select bank0
  3140     05BC  00A0               	movwf	??_I2C_Cmd
  3141     05BD                     u1027:
  3142     05BD  0BA0               	decfsz	??_I2C_Cmd,f
  3143     05BE  2DBD               	goto	u1027
  3144     05BF  2DC0               	nop2
  3145     05C0                     l180:	
  3146                           ;I2C.c: 36:     {;I2C.c: 37:     }
  3147                           
  3148                           
  3149                           ;I2C.c: 35:     while (SSPSTATbits.BF == 1)
  3150     05C0  1683               	bsf	3,5	;RP0=1, select bank1
  3151     05C1  1303               	bcf	3,6	;RP1=0, select bank1
  3152     05C2  1814               	btfsc	20,0	;volatile
  3153     05C3  2DC5               	goto	u631
  3154     05C4  2DC6               	goto	u630
  3155     05C5                     u631:
  3156     05C5  2DC0               	goto	l180
  3157     05C6                     u630:
  3158     05C6                     l1436:
  3159                           
  3160                           ;I2C.c: 38:     I2C_Check();
  3161     05C6  120A  118A  230B  120A  118A  	fcall	_I2C_Check
  3162                           
  3163                           ;I2C.c: 39:     while (SSPCON2bits.ACKSTAT == 1)
  3164     05CB  2DD8               	goto	l1440
  3165     05CC                     l1438:
  3166                           
  3167                           ;I2C.c: 40:     {;I2C.c: 41:         Lcd_print_string(1,"Dispositivo I2C",2,"No Reconoci
      +                          do");
  3168     05CC  3022               	movlw	(low ((STR_5-__stringbase)| (0+32768)))& (0+255)
  3169     05CD  00F3               	movwf	Lcd_print_string@String_x
  3170     05CE  3002               	movlw	2
  3171     05CF  00F4               	movwf	Lcd_print_string@POSy
  3172     05D0  306B               	movlw	(low ((STR_6-__stringbase)| (0+32768)))& (0+255)
  3173     05D1  00F5               	movwf	Lcd_print_string@String_y
  3174     05D2  3001               	movlw	1
  3175     05D3  120A  118A  2459  120A  118A  	fcall	_Lcd_print_string
  3176     05D8                     l1440:
  3177                           
  3178                           ;I2C.c: 39:     while (SSPCON2bits.ACKSTAT == 1)
  3179     05D8  1683               	bsf	3,5	;RP0=1, select bank1
  3180     05D9  1303               	bcf	3,6	;RP1=0, select bank1
  3181     05DA  1B11               	btfsc	17,6	;volatile
  3182     05DB  2DDD               	goto	u641
  3183     05DC  2DDE               	goto	u640
  3184     05DD                     u641:
  3185     05DD  2DCC               	goto	l1438
  3186     05DE                     u640:
  3187     05DE                     l1442:
  3188                           
  3189                           ;I2C.c: 43:     I2C_Check();
  3190     05DE  120A  118A  230B  120A  118A  	fcall	_I2C_Check
  3191     05E3                     l1444:
  3192                           
  3193                           ;I2C.c: 44:     SSPBUF = Cfg;
  3194     05E3  087C               	movf	I2C_Cmd@Cfg,w
  3195     05E4  1283               	bcf	3,5	;RP0=0, select bank0
  3196     05E5  1303               	bcf	3,6	;RP1=0, select bank0
  3197     05E6  0093               	movwf	19	;volatile
  3198     05E7                     l1446:
  3199                           
  3200                           ;I2C.c: 45:     _delay((unsigned long)((500)*(4000000/4000000.0)));
  3201     05E7  30A5               	movlw	165
  3202     05E8  1283               	bcf	3,5	;RP0=0, select bank0
  3203     05E9  1303               	bcf	3,6	;RP1=0, select bank0
  3204     05EA  00A0               	movwf	??_I2C_Cmd
  3205     05EB                     u1037:
  3206     05EB  0BA0               	decfsz	??_I2C_Cmd,f
  3207     05EC  2DEB               	goto	u1037
  3208     05ED  2DEE               	nop2
  3209     05EE                     l186:	
  3210                           ;I2C.c: 47:     {;I2C.c: 48:     }
  3211                           
  3212                           
  3213                           ;I2C.c: 46:     while (SSPSTATbits.BF == 1)
  3214     05EE  1683               	bsf	3,5	;RP0=1, select bank1
  3215     05EF  1303               	bcf	3,6	;RP1=0, select bank1
  3216     05F0  1814               	btfsc	20,0	;volatile
  3217     05F1  2DF3               	goto	u651
  3218     05F2  2DF4               	goto	u650
  3219     05F3                     u651:
  3220     05F3  2DEE               	goto	l186
  3221     05F4                     u650:
  3222     05F4                     l189:	
  3223                           ;I2C.c: 50:     {;I2C.c: 51:     }
  3224                           
  3225                           
  3226                           ;I2C.c: 49:     while (SSPCON2bits.ACKSTAT == 1)
  3227     05F4  1B11               	btfsc	17,6	;volatile
  3228     05F5  2DF7               	goto	u661
  3229     05F6  2DF8               	goto	u660
  3230     05F7                     u661:
  3231     05F7  2DF4               	goto	l189
  3232     05F8                     u660:
  3233     05F8                     l1448:
  3234                           
  3235                           ;I2C.c: 52:     I2C_Check();
  3236     05F8  120A  118A  230B  120A  118A  	fcall	_I2C_Check
  3237     05FD                     l1450:
  3238                           
  3239                           ;I2C.c: 53:     SSPBUF = Cmd;
  3240     05FD  087D               	movf	I2C_Cmd@Cmd,w
  3241     05FE  1283               	bcf	3,5	;RP0=0, select bank0
  3242     05FF  1303               	bcf	3,6	;RP1=0, select bank0
  3243     0600  0093               	movwf	19	;volatile
  3244     0601                     l1452:
  3245                           
  3246                           ;I2C.c: 54:     _delay((unsigned long)((500)*(4000000/4000000.0)));
  3247     0601  30A5               	movlw	165
  3248     0602  1283               	bcf	3,5	;RP0=0, select bank0
  3249     0603  1303               	bcf	3,6	;RP1=0, select bank0
  3250     0604  00A0               	movwf	??_I2C_Cmd
  3251     0605                     u1047:
  3252     0605  0BA0               	decfsz	??_I2C_Cmd,f
  3253     0606  2E05               	goto	u1047
  3254     0607  2E08               	nop2
  3255     0608                     l192:	
  3256                           ;I2C.c: 56:     {;I2C.c: 57:     }
  3257                           
  3258                           
  3259                           ;I2C.c: 55:     while (SSPSTATbits.BF == 1)
  3260     0608  1683               	bsf	3,5	;RP0=1, select bank1
  3261     0609  1303               	bcf	3,6	;RP1=0, select bank1
  3262     060A  1814               	btfsc	20,0	;volatile
  3263     060B  2E0D               	goto	u671
  3264     060C  2E0E               	goto	u670
  3265     060D                     u671:
  3266     060D  2E08               	goto	l192
  3267     060E                     u670:
  3268     060E                     l195:	
  3269                           ;I2C.c: 59:     {;I2C.c: 60:     }
  3270                           
  3271                           
  3272                           ;I2C.c: 58:     while (SSPCON2bits.ACKSTAT == 1)
  3273     060E  1B11               	btfsc	17,6	;volatile
  3274     060F  2E11               	goto	u681
  3275     0610  2E12               	goto	u680
  3276     0611                     u681:
  3277     0611  2E0E               	goto	l195
  3278     0612                     u680:
  3279     0612                     l198:
  3280     0612  0008               	return
  3281     0613                     __end_of_I2C_Cmd:
  3282                           
  3283                           	psect	text16
  3284     030B                     __ptext16:	
  3285 ;; *************** function _I2C_Check *****************
  3286 ;; Defined at:
  3287 ;;		line 16 in file "I2C.c"
  3288 ;; Parameters:    Size  Location     Type
  3289 ;;		None
  3290 ;; Auto vars:     Size  Location     Type
  3291 ;;		None
  3292 ;; Return value:  Size  Location     Type
  3293 ;;                  1    wreg      void 
  3294 ;; Registers used:
  3295 ;;		wreg, fsr0l, fsr0h, status,2, status,0, pclath, cstack
  3296 ;; Tracked objects:
  3297 ;;		On entry : 0/0
  3298 ;;		On exit  : 0/0
  3299 ;;		Unchanged: 0/0
  3300 ;; Data sizes:     COMMON   BANK0   BANK1   BANK3   BANK2
  3301 ;;      Params:         0       0       0       0       0
  3302 ;;      Locals:         0       0       0       0       0
  3303 ;;      Temps:          0       0       0       0       0
  3304 ;;      Totals:         0       0       0       0       0
  3305 ;;Total ram usage:        0 bytes
  3306 ;; Hardware stack levels used: 1
  3307 ;; Hardware stack levels required when called: 3
  3308 ;; This function calls:
  3309 ;;		_Lcd_print_string
  3310 ;; This function is called by:
  3311 ;;		_I2C_Cmd
  3312 ;;		_I2C_Write
  3313 ;;		_I2C_Read
  3314 ;;		_I2C_P
  3315 ;; This function uses a non-reentrant model
  3316 ;;
  3317                           
  3318     030B                     _I2C_Check:	
  3319                           ;psect for function _I2C_Check
  3320                           
  3321     030B                     l1328:	
  3322                           ;incstack = 0
  3323                           ; Regs used in _I2C_Check: [wreg-fsr0h+status,2+status,0+pclath+cstack]
  3324                           
  3325                           
  3326                           ;I2C.c: 18:     while ((SSPSTAT & 0x04) || (SSPCON2 & 0x1F))
  3327     030B  2B18               	goto	l1332
  3328     030C                     l1330:
  3329                           
  3330                           ;I2C.c: 19:     {;I2C.c: 20:         Lcd_print_string(6,"I2C",5,"Ocupado");
  3331     030C  302E               	movlw	(low (((STR_5+12)-__stringbase)| (0+32768)))& (0+255)
  3332     030D  00F3               	movwf	Lcd_print_string@String_x
  3333     030E  3005               	movlw	5
  3334     030F  00F4               	movwf	Lcd_print_string@POSy
  3335     0310  3079               	movlw	(low ((STR_4-__stringbase)| (0+32768)))& (0+255)
  3336     0311  00F5               	movwf	Lcd_print_string@String_y
  3337     0312  3006               	movlw	6
  3338     0313  120A  118A  2459  120A  118A  	fcall	_Lcd_print_string
  3339     0318                     l1332:
  3340                           
  3341                           ;I2C.c: 18:     while ((SSPSTAT & 0x04) || (SSPCON2 & 0x1F))
  3342     0318  1683               	bsf	3,5	;RP0=1, select bank1
  3343     0319  1303               	bcf	3,6	;RP1=0, select bank1
  3344     031A  1914               	btfsc	20,2	;volatile
  3345     031B  2B1D               	goto	u471
  3346     031C  2B1E               	goto	u470
  3347     031D                     u471:
  3348     031D  2B0C               	goto	l1330
  3349     031E                     u470:
  3350     031E                     l1334:
  3351     031E  0811               	movf	17,w	;volatile
  3352     031F  391F               	andlw	31
  3353     0320  1D03               	btfss	3,2
  3354     0321  2B23               	goto	u481
  3355     0322  2B24               	goto	u480
  3356     0323                     u481:
  3357     0323  2B0C               	goto	l1330
  3358     0324                     u480:
  3359     0324                     l174:
  3360     0324  0008               	return
  3361     0325                     __end_of_I2C_Check:
  3362                           
  3363                           	psect	text17
  3364     0459                     __ptext17:	
  3365 ;; *************** function _Lcd_print_string *****************
  3366 ;; Defined at:
  3367 ;;		line 18 in file "LCD.c"
  3368 ;; Parameters:    Size  Location     Type
  3369 ;;  POSx            1    wreg     unsigned char 
  3370 ;;  String_x        1    3[COMMON] PTR unsigned char 
  3371 ;;		 -> STR_15(14), STR_13(14), STR_11(14), STR_9(16), 
  3372 ;;		 -> STR_7(15), STR_5(16), STR_3(4), STR_1(6), 
  3373 ;;  POSy            1    4[COMMON] unsigned char 
  3374 ;;  String_y        1    5[COMMON] PTR unsigned char 
  3375 ;;		 -> STR_16(1), STR_14(1), STR_12(1), STR_10(6), 
  3376 ;;		 -> STR_8(17), STR_6(14), STR_4(8), STR_2(8), 
  3377 ;; Auto vars:     Size  Location     Type
  3378 ;;  POSx            1    6[COMMON] unsigned char 
  3379 ;;  c               2    9[COMMON] int 
  3380 ;;  b               2    7[COMMON] int 
  3381 ;;  a               1   11[COMMON] unsigned char 
  3382 ;; Return value:  Size  Location     Type
  3383 ;;                  1    wreg      void 
  3384 ;; Registers used:
  3385 ;;		wreg, fsr0l, fsr0h, status,2, status,0, pclath, cstack
  3386 ;; Tracked objects:
  3387 ;;		On entry : 0/0
  3388 ;;		On exit  : 0/0
  3389 ;;		Unchanged: 0/0
  3390 ;; Data sizes:     COMMON   BANK0   BANK1   BANK3   BANK2
  3391 ;;      Params:         3       0       0       0       0
  3392 ;;      Locals:         6       0       0       0       0
  3393 ;;      Temps:          0       0       0       0       0
  3394 ;;      Totals:         9       0       0       0       0
  3395 ;;Total ram usage:        9 bytes
  3396 ;; Hardware stack levels used: 1
  3397 ;; Hardware stack levels required when called: 2
  3398 ;; This function calls:
  3399 ;;		_Lcd_Write_Char
  3400 ;;		_Lcd_out_cmd
  3401 ;; This function is called by:
  3402 ;;		_main
  3403 ;;		_I2C_Check
  3404 ;;		_I2C_Cmd
  3405 ;;		_AJUSTE_DS1307
  3406 ;; This function uses a non-reentrant model
  3407 ;;
  3408                           
  3409     0459                     _Lcd_print_string:	
  3410                           ;psect for function _Lcd_print_string
  3411                           
  3412                           
  3413                           ;incstack = 0
  3414                           ; Regs used in _Lcd_print_string: [wreg-fsr0h+status,2+status,0+pclath+cstack]
  3415                           ;Lcd_print_string@POSx stored from wreg
  3416     0459  00F6               	movwf	Lcd_print_string@POSx
  3417     045A                     l1300:
  3418                           
  3419                           ;LCD.c: 18: void Lcd_print_string(unsigned char POSx,char *String_x,unsigned char POSy,c
      +                          har *String_y);LCD.c: 19: {;LCD.c: 20:     unsigned char a;;LCD.c: 21:     a = 0x80 + PO
      +                          Sx - 1;
  3420     045A  0876               	movf	Lcd_print_string@POSx,w
  3421     045B  3E7F               	addlw	127
  3422     045C  00FB               	movwf	Lcd_print_string@a
  3423     045D                     l1302:
  3424                           
  3425                           ;LCD.c: 22:     PORTD = a;
  3426     045D  087B               	movf	Lcd_print_string@a,w
  3427     045E  1283               	bcf	3,5	;RP0=0, select bank0
  3428     045F  1303               	bcf	3,6	;RP1=0, select bank0
  3429     0460  0088               	movwf	8	;volatile
  3430     0461                     l1304:
  3431                           
  3432                           ;LCD.c: 23:     Lcd_out_cmd();
  3433     0461  120A  118A  22F3  120A  118A  	fcall	_Lcd_out_cmd
  3434     0466                     l1306:
  3435                           
  3436                           ;LCD.c: 25:  int b;;LCD.c: 26:  for(b=0;String_x[b]!='\0';b++)
  3437     0466  01F7               	clrf	Lcd_print_string@b
  3438     0467  01F8               	clrf	Lcd_print_string@b+1
  3439     0468  2C7C               	goto	l1312
  3440     0469                     l1308:
  3441                           
  3442                           ;LCD.c: 27:     Lcd_Write_Char(String_x[b]);
  3443     0469  0877               	movf	Lcd_print_string@b,w
  3444     046A  0773               	addwf	Lcd_print_string@String_x,w
  3445     046B  0084               	movwf	4
  3446     046C  120A  118A  2003  120A  118A  	fcall	stringdir
  3447     0471  120A  118A  2277  120A  118A  	fcall	_Lcd_Write_Char
  3448     0476                     l1310:
  3449     0476  3001               	movlw	1
  3450     0477  07F7               	addwf	Lcd_print_string@b,f
  3451     0478  1803               	skipnc
  3452     0479  0AF8               	incf	Lcd_print_string@b+1,f
  3453     047A  3000               	movlw	0
  3454     047B  07F8               	addwf	Lcd_print_string@b+1,f
  3455     047C                     l1312:
  3456     047C  0877               	movf	Lcd_print_string@b,w
  3457     047D  0773               	addwf	Lcd_print_string@String_x,w
  3458     047E  0084               	movwf	4
  3459     047F  120A  118A  2003  120A  118A  	fcall	stringdir
  3460     0484  3A00               	xorlw	0
  3461     0485  1D03               	skipz
  3462     0486  2C88               	goto	u451
  3463     0487  2C89               	goto	u450
  3464     0488                     u451:
  3465     0488  2C69               	goto	l1308
  3466     0489                     u450:
  3467     0489                     l1314:
  3468                           
  3469                           ;LCD.c: 29:     a = 0xC0 + POSy - 1;
  3470     0489  0874               	movf	Lcd_print_string@POSy,w
  3471     048A  3EBF               	addlw	191
  3472     048B  00FB               	movwf	Lcd_print_string@a
  3473     048C                     l1316:
  3474                           
  3475                           ;LCD.c: 30:     PORTD = a;
  3476     048C  087B               	movf	Lcd_print_string@a,w
  3477     048D  1283               	bcf	3,5	;RP0=0, select bank0
  3478     048E  1303               	bcf	3,6	;RP1=0, select bank0
  3479     048F  0088               	movwf	8	;volatile
  3480     0490                     l1318:
  3481                           
  3482                           ;LCD.c: 31:     Lcd_out_cmd();
  3483     0490  120A  118A  22F3  120A  118A  	fcall	_Lcd_out_cmd
  3484     0495                     l1320:
  3485                           
  3486                           ;LCD.c: 33:  int c;;LCD.c: 34:  for(c=0;String_y[c]!='\0';c++)
  3487     0495  01F9               	clrf	Lcd_print_string@c
  3488     0496  01FA               	clrf	Lcd_print_string@c+1
  3489     0497  2CAB               	goto	l1326
  3490     0498                     l1322:
  3491                           
  3492                           ;LCD.c: 35:     Lcd_Write_Char(String_y[c]);
  3493     0498  0879               	movf	Lcd_print_string@c,w
  3494     0499  0775               	addwf	Lcd_print_string@String_y,w
  3495     049A  0084               	movwf	4
  3496     049B  120A  118A  2003  120A  118A  	fcall	stringdir
  3497     04A0  120A  118A  2277  120A  118A  	fcall	_Lcd_Write_Char
  3498     04A5                     l1324:
  3499     04A5  3001               	movlw	1
  3500     04A6  07F9               	addwf	Lcd_print_string@c,f
  3501     04A7  1803               	skipnc
  3502     04A8  0AFA               	incf	Lcd_print_string@c+1,f
  3503     04A9  3000               	movlw	0
  3504     04AA  07FA               	addwf	Lcd_print_string@c+1,f
  3505     04AB                     l1326:
  3506     04AB  0879               	movf	Lcd_print_string@c,w
  3507     04AC  0775               	addwf	Lcd_print_string@String_y,w
  3508     04AD  0084               	movwf	4
  3509     04AE  120A  118A  2003  120A  118A  	fcall	stringdir
  3510     04B3  3A00               	xorlw	0
  3511     04B4  1D03               	skipz
  3512     04B5  2CB7               	goto	u461
  3513     04B6  2CB8               	goto	u460
  3514     04B7                     u461:
  3515     04B7  2C98               	goto	l1322
  3516     04B8                     u460:
  3517     04B8                     l107:
  3518     04B8  0008               	return
  3519     04B9                     __end_of_Lcd_print_string:
  3520                           
  3521                           	psect	text18
  3522     02F3                     __ptext18:	
  3523 ;; *************** function _Lcd_out_cmd *****************
  3524 ;; Defined at:
  3525 ;;		line 44 in file "LCD.c"
  3526 ;; Parameters:    Size  Location     Type
  3527 ;;		None
  3528 ;; Auto vars:     Size  Location     Type
  3529 ;;		None
  3530 ;; Return value:  Size  Location     Type
  3531 ;;                  1    wreg      void 
  3532 ;; Registers used:
  3533 ;;		wreg
  3534 ;; Tracked objects:
  3535 ;;		On entry : 0/0
  3536 ;;		On exit  : 0/0
  3537 ;;		Unchanged: 0/0
  3538 ;; Data sizes:     COMMON   BANK0   BANK1   BANK3   BANK2
  3539 ;;      Params:         0       0       0       0       0
  3540 ;;      Locals:         0       0       0       0       0
  3541 ;;      Temps:          2       0       0       0       0
  3542 ;;      Totals:         2       0       0       0       0
  3543 ;;Total ram usage:        2 bytes
  3544 ;; Hardware stack levels used: 1
  3545 ;; This function calls:
  3546 ;;		Nothing
  3547 ;; This function is called by:
  3548 ;;		_Lcd_inicio
  3549 ;;		_Lcd_print_string
  3550 ;;		_Lcd_cmd
  3551 ;;		_Lcd_pos_x
  3552 ;;		_Lcd_pos_y
  3553 ;; This function uses a non-reentrant model
  3554 ;;
  3555                           
  3556     02F3                     _Lcd_out_cmd:	
  3557                           ;psect for function _Lcd_out_cmd
  3558                           
  3559     02F3                     l1290:	
  3560                           ;incstack = 0
  3561                           ; Regs used in _Lcd_out_cmd: [wreg]
  3562                           
  3563                           
  3564                           ;LCD.c: 46:     PORTEbits.RE0 = 0;
  3565     02F3  1283               	bcf	3,5	;RP0=0, select bank0
  3566     02F4  1303               	bcf	3,6	;RP1=0, select bank0
  3567     02F5  1009               	bcf	9,0	;volatile
  3568                           
  3569                           ;LCD.c: 47:     PORTEbits.RE2 = 1;
  3570     02F6  1509               	bsf	9,2	;volatile
  3571     02F7                     l1292:
  3572                           
  3573                           ;LCD.c: 48:     _delay((unsigned long)((5)*(4000000/4000.0)));
  3574     02F7  3007               	movlw	7
  3575     02F8  00F1               	movwf	??_Lcd_out_cmd+1
  3576     02F9  307D               	movlw	125
  3577     02FA  00F0               	movwf	??_Lcd_out_cmd
  3578     02FB                     u1057:
  3579     02FB  0BF0               	decfsz	??_Lcd_out_cmd,f
  3580     02FC  2AFB               	goto	u1057
  3581     02FD  0BF1               	decfsz	??_Lcd_out_cmd+1,f
  3582     02FE  2AFB               	goto	u1057
  3583     02FF                     l1294:
  3584                           
  3585                           ;LCD.c: 49:     PORTEbits.RE2 = 0;
  3586     02FF  1283               	bcf	3,5	;RP0=0, select bank0
  3587     0300  1303               	bcf	3,6	;RP1=0, select bank0
  3588     0301  1109               	bcf	9,2	;volatile
  3589                           
  3590                           ;LCD.c: 50:     _delay((unsigned long)((5)*(4000000/4000.0)));
  3591     0302  3007               	movlw	7
  3592     0303  00F1               	movwf	??_Lcd_out_cmd+1
  3593     0304  307D               	movlw	125
  3594     0305  00F0               	movwf	??_Lcd_out_cmd
  3595     0306                     u1067:
  3596     0306  0BF0               	decfsz	??_Lcd_out_cmd,f
  3597     0307  2B06               	goto	u1067
  3598     0308  0BF1               	decfsz	??_Lcd_out_cmd+1,f
  3599     0309  2B06               	goto	u1067
  3600     030A                     l113:
  3601     030A  0008               	return
  3602     030B                     __end_of_Lcd_out_cmd:
  3603                           
  3604                           	psect	text19
  3605     0277                     __ptext19:	
  3606 ;; *************** function _Lcd_Write_Char *****************
  3607 ;; Defined at:
  3608 ;;		line 69 in file "LCD.c"
  3609 ;; Parameters:    Size  Location     Type
  3610 ;;  a               1    wreg     unsigned char 
  3611 ;; Auto vars:     Size  Location     Type
  3612 ;;  a               1    2[COMMON] unsigned char 
  3613 ;; Return value:  Size  Location     Type
  3614 ;;                  1    wreg      void 
  3615 ;; Registers used:
  3616 ;;		wreg, status,2, status,0, pclath, cstack
  3617 ;; Tracked objects:
  3618 ;;		On entry : 0/0
  3619 ;;		On exit  : 0/0
  3620 ;;		Unchanged: 0/0
  3621 ;; Data sizes:     COMMON   BANK0   BANK1   BANK3   BANK2
  3622 ;;      Params:         0       0       0       0       0
  3623 ;;      Locals:         1       0       0       0       0
  3624 ;;      Temps:          0       0       0       0       0
  3625 ;;      Totals:         1       0       0       0       0
  3626 ;;Total ram usage:        1 bytes
  3627 ;; Hardware stack levels used: 1
  3628 ;; Hardware stack levels required when called: 1
  3629 ;; This function calls:
  3630 ;;		_Lcd_out_data
  3631 ;; This function is called by:
  3632 ;;		_Lcd_print_string
  3633 ;;		_lectura_tiempo_posX
  3634 ;;		_lectura_tiempo_posY
  3635 ;;		_READ_DS1307
  3636 ;;		_AJUSTE_DS1307
  3637 ;;		_Lcd_Write_String
  3638 ;; This function uses a non-reentrant model
  3639 ;;
  3640                           
  3641     0277                     _Lcd_Write_Char:	
  3642                           ;psect for function _Lcd_Write_Char
  3643                           
  3644                           
  3645                           ;incstack = 0
  3646                           ; Regs used in _Lcd_Write_Char: [wreg+status,2+status,0+pclath+cstack]
  3647                           ;Lcd_Write_Char@a stored from wreg
  3648     0277  00F2               	movwf	Lcd_Write_Char@a
  3649     0278                     l1296:
  3650                           
  3651                           ;LCD.c: 69: void Lcd_Write_Char(unsigned char a);LCD.c: 70: {;LCD.c: 71:     PORTD = a;
  3652     0278  0872               	movf	Lcd_Write_Char@a,w
  3653     0279  1283               	bcf	3,5	;RP0=0, select bank0
  3654     027A  1303               	bcf	3,6	;RP1=0, select bank0
  3655     027B  0088               	movwf	8	;volatile
  3656     027C                     l1298:
  3657                           
  3658                           ;LCD.c: 72:     Lcd_out_data();
  3659     027C  120A  118A  22DB  120A  118A  	fcall	_Lcd_out_data
  3660     0281                     l125:
  3661     0281  0008               	return
  3662     0282                     __end_of_Lcd_Write_Char:
  3663                           
  3664                           	psect	text20
  3665     02DB                     __ptext20:	
  3666 ;; *************** function _Lcd_out_data *****************
  3667 ;; Defined at:
  3668 ;;		line 53 in file "LCD.c"
  3669 ;; Parameters:    Size  Location     Type
  3670 ;;		None
  3671 ;; Auto vars:     Size  Location     Type
  3672 ;;		None
  3673 ;; Return value:  Size  Location     Type
  3674 ;;                  1    wreg      void 
  3675 ;; Registers used:
  3676 ;;		wreg
  3677 ;; Tracked objects:
  3678 ;;		On entry : 0/0
  3679 ;;		On exit  : 0/0
  3680 ;;		Unchanged: 0/0
  3681 ;; Data sizes:     COMMON   BANK0   BANK1   BANK3   BANK2
  3682 ;;      Params:         0       0       0       0       0
  3683 ;;      Locals:         0       0       0       0       0
  3684 ;;      Temps:          2       0       0       0       0
  3685 ;;      Totals:         2       0       0       0       0
  3686 ;;Total ram usage:        2 bytes
  3687 ;; Hardware stack levels used: 1
  3688 ;; This function calls:
  3689 ;;		Nothing
  3690 ;; This function is called by:
  3691 ;;		_Lcd_Write_Char
  3692 ;; This function uses a non-reentrant model
  3693 ;;
  3694                           
  3695     02DB                     _Lcd_out_data:	
  3696                           ;psect for function _Lcd_out_data
  3697                           
  3698     02DB                     l1284:	
  3699                           ;incstack = 0
  3700                           ; Regs used in _Lcd_out_data: [wreg]
  3701                           
  3702                           
  3703                           ;LCD.c: 55:     PORTEbits.RE0 = 1;
  3704     02DB  1283               	bcf	3,5	;RP0=0, select bank0
  3705     02DC  1303               	bcf	3,6	;RP1=0, select bank0
  3706     02DD  1409               	bsf	9,0	;volatile
  3707                           
  3708                           ;LCD.c: 56:     PORTEbits.RE2 = 1;
  3709     02DE  1509               	bsf	9,2	;volatile
  3710     02DF                     l1286:
  3711                           
  3712                           ;LCD.c: 57:     _delay((unsigned long)((5)*(4000000/4000.0)));
  3713     02DF  3007               	movlw	7
  3714     02E0  00F1               	movwf	??_Lcd_out_data+1
  3715     02E1  307D               	movlw	125
  3716     02E2  00F0               	movwf	??_Lcd_out_data
  3717     02E3                     u1077:
  3718     02E3  0BF0               	decfsz	??_Lcd_out_data,f
  3719     02E4  2AE3               	goto	u1077
  3720     02E5  0BF1               	decfsz	??_Lcd_out_data+1,f
  3721     02E6  2AE3               	goto	u1077
  3722     02E7                     l1288:
  3723                           
  3724                           ;LCD.c: 58:     PORTEbits.RE2 = 0;
  3725     02E7  1283               	bcf	3,5	;RP0=0, select bank0
  3726     02E8  1303               	bcf	3,6	;RP1=0, select bank0
  3727     02E9  1109               	bcf	9,2	;volatile
  3728                           
  3729                           ;LCD.c: 59:     _delay((unsigned long)((5)*(4000000/4000.0)));
  3730     02EA  3007               	movlw	7
  3731     02EB  00F1               	movwf	??_Lcd_out_data+1
  3732     02EC  307D               	movlw	125
  3733     02ED  00F0               	movwf	??_Lcd_out_data
  3734     02EE                     u1087:
  3735     02EE  0BF0               	decfsz	??_Lcd_out_data,f
  3736     02EF  2AEE               	goto	u1087
  3737     02F0  0BF1               	decfsz	??_Lcd_out_data+1,f
  3738     02F1  2AEE               	goto	u1087
  3739     02F2                     l116:
  3740     02F2  0008               	return
  3741     02F3                     __end_of_Lcd_out_data:
  3742     0002                     ___latbits      equ	2
  3743     007E                     btemp           set	126	;btemp
  3744     007E                     wtemp0          set	126
  3745                           
  3746                           	psect	idloc
  3747                           
  3748                           ;Config register IDLOC0 @ 0x2000
  3749                           ;	unspecified, using default values
  3750     2000                     	org	8192
  3751     2000  3FFF               	dw	16383
  3752                           
  3753                           ;Config register IDLOC1 @ 0x2001
  3754                           ;	unspecified, using default values
  3755     2001                     	org	8193
  3756     2001  3FFF               	dw	16383
  3757                           
  3758                           ;Config register IDLOC2 @ 0x2002
  3759                           ;	unspecified, using default values
  3760     2002                     	org	8194
  3761     2002  3FFF               	dw	16383
  3762                           
  3763                           ;Config register IDLOC3 @ 0x2003
  3764                           ;	unspecified, using default values
  3765     2003                     	org	8195
  3766     2003  3FFF               	dw	16383
  3767                           
  3768                           	psect	config
  3769                           
  3770                           ;Config register CONFIG @ 0x2007
  3771                           ;	Oscillator Selection bits
  3772                           ;	FOSC = XT, XT oscillator
  3773                           ;	Watchdog Timer Enable bit
  3774                           ;	WDTE = OFF, WDT disabled
  3775                           ;	Power-up Timer Enable bit
  3776                           ;	PWRTE = ON, PWRT enabled
  3777                           ;	Brown-out Reset Enable bit
  3778                           ;	BOREN = ON, BOR enabled
  3779                           ;	Low-Voltage (Single-Supply) In-Circuit Serial Programming Enable bit
  3780                           ;	LVP = OFF, RB3 is digital I/O, HV on MCLR must be used for programming
  3781                           ;	Data EEPROM Memory Code Protection bit
  3782                           ;	CPD = OFF, Data EEPROM code protection off
  3783                           ;	Flash Program Memory Write Enable bits
  3784                           ;	WRT = OFF, Write protection off; all program memory may be written to by EECON control
  3785                           ;	In-Circuit Debugger Mode bit
  3786                           ;	DEBUG = 0x1, unprogrammed default
  3787                           ;	Flash Program Memory Code Protection bit
  3788                           ;	CP = OFF, Code protection off
  3789     2007                     	org	8199
  3790     2007  3F71               	dw	16241

Data Sizes:
    Strings     148
    Constant    0
    Data        0
    BSS         8
    Persistent  0
    Stack       0

Auto Spaces:
    Space          Size  Autos    Used
    COMMON           14     14      14
    BANK0            80     10      18
    BANK1            80      0       0
    BANK3            96      0       0
    BANK2            96      0       0

Pointer List with Targets:

    Lcd_print_string@String_x	PTR unsigned char  size(1) Largest target is 16
		 -> STR_1(CODE[6]), STR_11(CODE[14]), STR_13(CODE[14]), STR_15(CODE[14]), 
		 -> STR_3(CODE[4]), STR_5(CODE[16]), STR_7(CODE[15]), STR_9(CODE[16]), 

    Lcd_print_string@String_y	PTR unsigned char  size(1) Largest target is 17
		 -> STR_10(CODE[6]), STR_12(CODE[1]), STR_14(CODE[1]), STR_16(CODE[1]), 
		 -> STR_2(CODE[8]), STR_4(CODE[8]), STR_6(CODE[14]), STR_8(CODE[17]), 


Critical Paths under _main in COMMON

    _main->_I2C_Cmd
    _lectura_tiempo_posY->_I2C_Write
    _lectura_tiempo_posX->_I2C_Write
    _Lcd_pos_x->_Lcd_out_cmd
    _Lcd_inicio->_Lcd_out_cmd
    _CFG_DS1307->_I2C_Cmd
    _AJUSTE_DS1307->_I2C_Cmd
    _Lcd_pos_y->_Lcd_out_cmd
    _Lcd_cmd->_Lcd_out_cmd
    _I2C_Cmd->_Lcd_print_string
    _I2C_Check->_Lcd_print_string
    _Lcd_print_string->_Lcd_Write_Char
    _Lcd_Write_Char->_Lcd_out_data

Critical Paths under _main in BANK0

    _READ_DS1307->_lectura_tiempo_posX
    _READ_DS1307->_lectura_tiempo_posY
    _lectura_tiempo_posY->_I2C_Write
    _lectura_tiempo_posX->_I2C_Write
    _CFG_DS1307->_I2C_Cmd
    _AJUSTE_DS1307->_I2C_Cmd

Critical Paths under _main in BANK1

    None.

Critical Paths under _main in BANK3

    None.

Critical Paths under _main in BANK2

    None.

Call Graph Tables:

 ---------------------------------------------------------------------------------
 (Depth) Function   	        Calls       Base Space   Used Autos Params    Refs
 ---------------------------------------------------------------------------------
 (0) _main                                                 3     3      0    6097
                                              7 BANK0      3     3      0
                      _AJUSTE_DS1307
                         _CFG_DS1307
                            _I2C_Cmd
                     _I2C_Initialize
                              _I2C_P
                            _Lcd_cmd
                         _Lcd_inicio
                   _Lcd_print_string
                        _READ_DS1307
 ---------------------------------------------------------------------------------
 (1) _READ_DS1307                                          0     0      0    2091
                     _Lcd_Write_Char
                          _Lcd_pos_y
                _lectura_tiempo_posX
                _lectura_tiempo_posY
 ---------------------------------------------------------------------------------
 (2) _lectura_tiempo_posY                                  5     1      4    1005
                                              2 BANK0      5     1      4
                         _BCD_TO_DEC
                           _I2C_Read
                          _I2C_Write
                     _Lcd_Write_Char
                          _Lcd_pos_y
 ---------------------------------------------------------------------------------
 (2) _lectura_tiempo_posX                                  5     1      4    1005
                                              2 BANK0      5     1      4
                         _BCD_TO_DEC
                           _I2C_Read
                          _I2C_Write
                     _Lcd_Write_Char
                          _Lcd_pos_x
 ---------------------------------------------------------------------------------
 (3) _Lcd_pos_x                                            2     2      0      52
                                              2 COMMON     2     2      0
                        _Lcd_out_cmd
 ---------------------------------------------------------------------------------
 (3) _I2C_Write                                            4     2      2     407
                                             12 COMMON     2     0      2
                                              0 BANK0      2     2      0
                          _I2C_Check
 ---------------------------------------------------------------------------------
 (3) _I2C_Read                                             0     0      0     330
                          _I2C_Check
 ---------------------------------------------------------------------------------
 (3) _BCD_TO_DEC                                           2     2      0      58
                                              0 COMMON     2     2      0
 ---------------------------------------------------------------------------------
 (1) _Lcd_inicio                                           2     2      0       0
                                              2 COMMON     2     2      0
                        _Lcd_out_cmd
 ---------------------------------------------------------------------------------
 (1) _I2C_Initialize                                       0     0      0       0
 ---------------------------------------------------------------------------------
 (1) _CFG_DS1307                                           0     0      0    1069
                            _I2C_Cmd
                              _I2C_P
 ---------------------------------------------------------------------------------
 (1) _AJUSTE_DS1307                                        3     3      0    1509
                                              2 BANK0      3     3      0
                            _I2C_Cmd
                              _I2C_P
                     _Lcd_Write_Char
                            _Lcd_cmd
                          _Lcd_pos_y
                   _Lcd_print_string
 ---------------------------------------------------------------------------------
 (3) _Lcd_pos_y                                            2     2      0      52
                                              2 COMMON     2     2      0
                        _Lcd_out_cmd
 ---------------------------------------------------------------------------------
 (1) _Lcd_cmd                                              1     1      0      29
                                              2 COMMON     1     1      0
                        _Lcd_out_cmd
 ---------------------------------------------------------------------------------
 (1) _I2C_P                                                0     0      0     330
                          _I2C_Check
 ---------------------------------------------------------------------------------
 (1) _I2C_Cmd                                              4     2      2     739
                                             12 COMMON     2     0      2
                                              0 BANK0      2     2      0
                          _I2C_Check
                   _Lcd_print_string
 ---------------------------------------------------------------------------------
 (4) _I2C_Check                                            0     0      0     330
                   _Lcd_print_string
 ---------------------------------------------------------------------------------
 (5) _Lcd_print_string                                     9     6      3     330
                                              3 COMMON     9     6      3
                     _Lcd_Write_Char
                        _Lcd_out_cmd
 ---------------------------------------------------------------------------------
 (4) _Lcd_out_cmd                                          2     2      0       0
                                              0 COMMON     2     2      0
 ---------------------------------------------------------------------------------
 (3) _Lcd_Write_Char                                       1     1      0      29
                                              2 COMMON     1     1      0
                       _Lcd_out_data
 ---------------------------------------------------------------------------------
 (4) _Lcd_out_data                                         2     2      0       0
                                              0 COMMON     2     2      0
 ---------------------------------------------------------------------------------
 Estimated maximum stack depth 5
 ---------------------------------------------------------------------------------

 Call Graph Graphs:

 _main (ROOT)
   _AJUSTE_DS1307
     _I2C_Cmd
       _I2C_Check
         _Lcd_print_string
           _Lcd_Write_Char
             _Lcd_out_data
           _Lcd_out_cmd
       _Lcd_print_string
     _I2C_P
       _I2C_Check
     _Lcd_Write_Char
     _Lcd_cmd
       _Lcd_out_cmd
     _Lcd_pos_y
       _Lcd_out_cmd
     _Lcd_print_string
   _CFG_DS1307
     _I2C_Cmd
     _I2C_P
   _I2C_Cmd
   _I2C_Initialize
   _I2C_P
   _Lcd_cmd
   _Lcd_inicio
     _Lcd_out_cmd
   _Lcd_print_string
   _READ_DS1307
     _Lcd_Write_Char
     _Lcd_pos_y
     _lectura_tiempo_posX
       _BCD_TO_DEC
       _I2C_Read
         _I2C_Check
       _I2C_Write
         _I2C_Check
       _Lcd_Write_Char
       _Lcd_pos_x
         _Lcd_out_cmd
     _lectura_tiempo_posY
       _BCD_TO_DEC
       _I2C_Read
       _I2C_Write
       _Lcd_Write_Char
       _Lcd_pos_y

Address spaces:
Name               Size   Autos  Total    Usage
BITCOMMON           14      0       0      0.0%
BITBANK0            80      0       0      0.0%
BITBANK1            80      0       0      0.0%
BITBANK3            96      0       0      0.0%
BITBANK2            96      0       0      0.0%
COMMON              14     14      14    100.0%
BANK0               80     10      18     22.5%
BANK1               80      0       0      0.0%
BANK3               96      0       0      0.0%
BANK2               96      0       0      0.0%
STACK                0      0       0      0.0%
DATA                 0      0      32      0.0%


Microchip Technology PIC Macro Assembler V2.50 build 20240725155939 
Symbol Table                                                                                   Sun Nov 17 12:41:08 2024

                                 pc 0002                         _SSPSTATbits 0094  
                                l98 0385                                  fsr 0004  
                               l110 028C                                 l113 030A  
                               l201 0621                                 l210 0658  
                               l107 04B8                                 l131 029A  
                               l116 02F2                                 l300 079A  
                               l204 0637                                 l125 0281  
                               l301 0796                                 l213 0663  
                               l222 0695                                 l231 03B8  
                               l207 0642                                 l240 02DA  
                               l320 07F1                                 l216 0674  
                               l128 02A8                                 l225 069B  
                               l314 07DE                                 l234 03C2  
                               l219 068A                                 l180 05C0  
                               l308 07C0                                 l228 0391  
                               l237 02D4                                 l309 07BA  
                               l174 0324                                 l192 0608  
                               l168 02C8                                 l344 034E  
                               l177 05AA                                 l186 05EE  
                               l195 060E                                 l283 02B8  
                               l292 0525                                 l189 05F4  
                               l198 0612                                 l286 040D  
                               l295 07EB                                 l289 0458  
                               l298 07E4                                 u500 063D  
                               u501 063C                                 u510 0648  
                               u511 0647                                 u600 033E  
                               u520 065E                                 u601 033D  
                               u521 065D                                 u450 0489  
                               u530 0669                                 u451 0488  
                               u531 0668                                 u460 04B8  
                               u620 05B0                                 u700 06AF  
                               u540 067A                                 u461 04B7  
                               u621 05AF                                 u701 06AE  
                               u541 0679                                 u470 031E  
                               u630 05C6                                 u710 06D6  
                               u550 0690                                 u471 031D  
                               u631 05C5                                 u711 06D5  
                               u615 0341                                 u551 068F  
                               u480 0324                                 u640 05DE  
                               u800 07C0                                 u720 0724  
                               u560 069B                                 u481 0323  
                               u641 05DD                                 u801 07BF  
                               u721 0723                                 u561 069A  
                               u650 05F4                                 u810 07C4  
                               u730 073C                                 u570 0397  
                               u490 0627                                 u651 05F3  
                               u811 07C3                                 u731 073B  
                               u571 0396                                 u491 0626  
                               u660 05F8                                 u820 07DD  
                               u580 03BE                                 u661 05F7  
                               u821 07DC                                 u581 03BD  
                               u670 060E                                 u830 07E4  
                               u750 0756                                 u671 060D  
                               u831 07E3                                 u751 0755  
                               u680 0612                                 u840 07EA  
                               u760 0770                                 u681 0611  
                               u841 07E9                                 u761 076F  
                               u745 0742                                 u690 02DA  
                               u850 07F1                                 u770 079A  
                               u691 02D9                                 u851 07F0  
                               u771 0799                                 u595 032F  
                               u907 0634                                 u780 07A0  
                               u860 0587                                 u781 079F  
                               u917 0655                                 u861 0586  
                               u790 07B9                                 u791 07B8  
                               u927 0687                                 u937 0353  
                               u947 0365                                 u957 0374  
                               u967 0382                                 u977 06B7  
                               u897 0563                                 u987 06DE  
                               u997 072C                     __end_of_I2C_Cmd 0613  
                               fsr0 0004                                l1112 02B9  
                              l1114 02C1                                l1300 045A  
                              l1116 02C4                                l1310 0476  
                              l1302 045D                                l1118 02C6  
                              l1320 0495                                l1312 047C  
                              l1304 0461                                l1400 03B2  
                              l1322 0498                                l1314 0489  
                              l1306 0466                                l1330 030C  
                              l1410 0336                                l1402 03B5  
                              l1324 04A5                                l1316 048C  
                              l1308 0469                                l1332 0318  
                              l1420 0283                                l1500 0369  
                              l1412 033E                                l1404 03BE  
                              l1340 02A3                                l1326 04AB  
                              l1318 0490                                l1334 031E  
                              l1430 05B0                                l1422 0287  
                              l1342 028E                                l1502 0372  
                              l1414 0349                                l1406 0326  
                              l1350 061B                                l1510 04B9  
                              l1328 030B                                l1440 05D8  
                              l1432 05B5                                l1424 059F  
                              l1344 0291                                l1600 07A7  
                              l1520 06A9                                l1504 0377  
                              l1416 034C                                l1408 032C  
                              l1360 063D                                l1352 061E  
                              l1336 029C                                l1512 0519  
                              l1290 02F3                                l1450 05FD  
                              l1442 05DE                                l1434 05B9  
                              l1426 05A4                                l1346 0295  
                              l1610 07D7                                l1602 07B3  
                              l1530 06D6                                l1522 06AF  
                              l1506 037B                                l1370 0669  
                              l1362 0648                                l1354 0627  
                              l1338 029F                                l1514 051F  
                              l1284 02DB                                l1292 02F7  
                              l1452 0601                                l1444 05E3  
                              l1436 05C6                                l1428 05A7  
                              l1540 06EF                                l1532 06E4  
                              l1524 06BD                                l1516 069C  
                              l1508 02A9                                l1380 0683  
                              l1372 066E                                l1364 064D  
                              l1356 062C                                l1348 0616  
                              l1460 03C6                                l1620 052F  
                              l1286 02DF                                l1294 02FF  
                              l1446 05E7                                l1438 05CC  
                              l1454 02C9                                l1606 07C4  
                              l1550 0702                                l1542 06F0  
                              l1534 06EA                                l1526 06C4  
                              l1518 069D                                l1390 0397  
                              l1382 0690                                l1374 0671  
                              l1366 0651                                l1358 0630  
                              l1470 03F5                                l1462 03D5  
                              l1630 053F                                l1622 0531  
                              l1614 0526                                l1288 02E7  
                              l1296 0278                                l1448 05F8  
                              l1456 02CE                                l1608 07CB  
                              l1560 0724                                l1552 0708  
                              l1544 06F1                                l1536 06ED  
                              l1528 06D0                                l1392 039C  
                              l1384 0386                                l1376 067A  
                              l1368 065E                                l1472 03FD  
                              l1464 03DD                                l1480 0428  
                              l1640 055B                                l1632 0540  
                              l1624 0539                                l1616 052B  
                              l1298 027C                                l1458 02D1  
                              l1570 073F                                l1562 0732  
                              l1554 0710                                l1546 06F3  
                              l1538 06EE                                l1394 039F  
                              l1386 038B                                l1378 067F  
                              l1474 0405                                l1466 03E5  
                              l1490 0450                                l1482 0430  
                              l1650 0581                                l1642 0569  
                              l1634 0545                                l1626 053D  
                              l1618 052D                                l1572 074A  
                              l1564 0736                                l1580 0752  
                              l1556 0716                                l1548 06F6  
                              l1492 034F                                l1396 03A7  
                              l1388 038E                                l1468 03ED  
                              l1484 0438                                l1476 0411  
                              l1652 0587                                l1644 056F  
                              l1636 054A                                l1628 053E  
                              l1590 0770                                l1582 0756  
                              l1574 074C                                l1566 073C  
                              l1558 071E                                l1494 0358  
                              l1398 03AA                                l1486 0440  
                              l1478 0420                                l1654 058D  
                              l1646 0577                                l1638 054F  
                              l1592 077E                                l1584 0764  
                              l1576 074E                                l1568 073D  
                              l1496 035C                                l1488 0448  
                              l1656 0592                                l1648 057C  
                              l1594 078A                                l1586 0768  
                              l1578 0750                                l1498 0361  
                              l1596 078F                                l1588 076C  
                              l1598 07A0                                STR_1 0097  
                              STR_2 0089                                STR_3 0036  
                              STR_4 0081                                STR_5 002A  
                              STR_6 0073                                STR_7 003A  
                              STR_8 0009                                STR_9 001A  
                              u1007 075E                                u1017 0778  
                              u1027 05BD                                u1037 05EB  
                              u1047 0605                                u1057 02FB  
                              u1067 0306                                u1077 02E3  
                              u1087 02EE                        ?_READ_DS1307 0070  
             ??_lectura_tiempo_posX 007E               ??_lectura_tiempo_posY 007E  
                              _main 0526                    __end_of_I2C_Read 03C3  
                              btemp 007E          _dato_ajuste_dia_lcd_decena 002C  
                              start 0000                     __end_of_Lcd_cmd 028D  
        _dato_ajuste_dia_lcd_unidad 002D                 __end_of_Lcd_out_cmd 030B  
                             ?_main 0070                               _I2C_P 02C9  
                             STR_10 0091                               STR_11 0049  
                             STR_12 0039                               STR_13 0065  
                             STR_14 0039                               STR_15 0057  
                             STR_16 0039                               _CMCON 009C  
                             _PORTA 0005                               _PORTB 0006  
                             _PORTC 0007                               _PORTD 0008  
                             _PORTE 0009                               _TRISA 0085  
                             _TRISB 0086                               _TRISC 0087  
                             _TRISD 0088                               _TRISE 0089  
                        _Lcd_inicio 034F                   __end_of_I2C_Check 0325  
lectura_tiempo_posX@registro_DS1307 0026                   __end_of_I2C_Write 069C  
                             pclath 000A               __end_of_AJUSTE_DS1307 07F2  
                             status 0003                               wtemp0 007E  
                   __initialization 07F2                        __end_of_main 059C  
                         ??_I2C_Cmd 0020                              ??_main 0027  
                            ?_I2C_P 0070                __end_of_Lcd_out_data 02F3  
                      ??_BCD_TO_DEC 0070                           ??_Lcd_cmd 0072  
                            _SSPADD 0093                              _TRISC3 043B  
                            _TRISC4 043C                              _SSPCON 0014  
                            _SSPBUF 0013                        ??_CFG_DS1307 007E  
lectura_tiempo_posY@registro_DS1307 0026                         _Lcd_out_cmd 02F3  
                __end_of_BCD_TO_DEC 034F                           ?_I2C_Read 0070  
                       ?_Lcd_inicio 0070                  __end_of_CFG_DS1307 02B9  
           __end_of__initialization 07FC                       __end_of_I2C_P 02DB  
                    __pcstackCOMMON 0070                   __end_of_Lcd_pos_x 02A9  
                 __end_of_Lcd_pos_y 029B                             ??_I2C_P 007C  
                    _OPTION_REGbits 0081                          ??_I2C_Read 007C  
                        __pbssBANK0 002A                          I2C_Cmd@Cfg 007C  
                        I2C_Cmd@Cmd 007D                          I2C_Cmd@Dir 0021  
                        __pmaintext 0526                             _I2C_Cmd 059C  
                    Lcd_cmd@comando 0072         __end_of_lectura_tiempo_posX 040E  
       __end_of_lectura_tiempo_posY 0459                             _SSPCON2 0091  
                           _SSPSTAT 0094                          __stringtab 0003  
                    _Lcd_Write_Char 0277                           _I2C_Check 030B  
                           _Lcd_cmd 0282                           _I2C_Write 0613  
                      _Lcd_out_data 02DB                             _decenas 002B  
                    _I2C_Initialize 02B9                    _Lcd_print_string 0459  
                           __ptext1 04B9                             __ptext2 040E  
                           __ptext3 03C3                             __ptext4 029B  
                           __ptext5 0613                             __ptext6 0386  
                           __ptext7 0325                             __ptext8 034F  
                           __ptext9 02B9              __end_of_Lcd_Write_Char 0282  
              end_of_initialization 07FC                          ?_I2C_Check 0070  
                        ?_I2C_Write 007C                        ?_Lcd_out_cmd 0070  
            __end_of_I2C_Initialize 02C9                           _PORTBbits 0006  
                         _PORTEbits 0009                        ??_Lcd_inicio 0072  
                   ?_Lcd_Write_Char 0070         lectura_tiempo_posX@caracter 0025  
       lectura_tiempo_posY@caracter 0025                  __end_of_Lcd_inicio 0386  
                   ?_I2C_Initialize 0070                           _Lcd_pos_x 029B  
                         _Lcd_pos_y 028D                      BCD_TO_DEC@dato 0071  
               start_initialization 07F2                       ??_READ_DS1307 007E  
            _dato_ajuste_dia_decena 002E                         ??_I2C_Check 007C  
                     _AJUSTE_DS1307 069C              _dato_ajuste_dia_unidad 002F  
                       ??_I2C_Write 0020           lectura_tiempo_posX@pos_D3 0024  
         lectura_tiempo_posY@pos_D3 0024                      I2C_Write@DirW2 007D  
                          ?_I2C_Cmd 007C                     Lcd_Write_Char@a 0072  
                        ?_Lcd_pos_x 0070                          ?_Lcd_pos_y 0070  
                         ___latbits 0002                       __pcstackBANK0 0020  
                    ?_AJUSTE_DS1307 0070            __end_of_Lcd_print_string 04B9  
                          ?_Lcd_cmd 0070                     _dato_ajuste_dia 0030  
               __end_of_READ_DS1307 0526                           __pstrings 0003  
                          _I2C_Read 0386                            _DATO_I2C 0031  
                       ??_Lcd_pos_x 0072                         ??_Lcd_pos_y 0072  
                       __stringbase 0008                          _ADCON1bits 009F  
                  ??_Lcd_Write_Char 0072            Lcd_print_string@String_x 0073  
          Lcd_print_string@String_y 0075                     ??_AJUSTE_DS1307 0022  
                       _READ_DS1307 04B9          lectura_tiempo_posX@pos_dec 0023  
                        _BCD_TO_DEC 0325          lectura_tiempo_posX@pos_uni 0022  
        lectura_tiempo_posY@pos_dec 0023          lectura_tiempo_posY@pos_uni 0022  
                  ??_I2C_Initialize 0070                          _CFG_DS1307 02A9  
                     I2C_Write@CmdW 007C                       I2C_Write@DirW 0021  
                __end_of__stringtab 0009                            __ptext10 02A9  
                          __ptext11 069C                            __ptext20 02DB  
                          __ptext12 028D                            __ptext13 0282  
                          __ptext14 02C9                            __ptext15 059C  
                          __ptext16 030B                            __ptext17 0459  
                          __ptext18 02F3                            __ptext19 0277  
                     Lcd_pos_x@POSx 0072                       Lcd_pos_y@POSy 0072  
                          _unidades 002A                         ?_BCD_TO_DEC 0070  
              Lcd_print_string@POSx 0076                Lcd_print_string@POSy 0074  
                 ?_Lcd_print_string 0073                         ?_CFG_DS1307 0070  
                         stringcode 0003                  ??_Lcd_print_string 0076  
                     ?_Lcd_out_data 0070                 _lectura_tiempo_posX 03C3  
               _lectura_tiempo_posY 040E                            stringdir 0003  
                          stringtab 0003                         _SSPCON2bits 0091  
                        Lcd_pos_x@a 0073                          Lcd_pos_y@a 0073  
              ?_lectura_tiempo_posX 0022                ?_lectura_tiempo_posY 0022  
                 Lcd_print_string@a 007B                   Lcd_print_string@b 0077  
                 Lcd_print_string@c 0079                      ??_Lcd_out_data 0070  
                     ??_Lcd_out_cmd 0070  
